(dp0
S'test_instances'
p1
(lp2
S'RAzMqEvHFE-s32udJjTN8A'
p3
aS'7UAAkWZJnnHIpGdG0JfXqg'
p4
aS'dewq6aevfoNFvJBqM7PG5A'
p5
aS'rjphpWi6miBIE1ozv_VkrA'
p6
aS'OhCRdO-4v4zV90TMbR7Qfw'
p7
aS'5jazn-RZP2R6ZkCIPZsf0w'
p8
aS'FWIvOa28jn15bvKIqqYgvQ'
p9
aS'YcgyfBacmJG-yV8PlNlArg'
p10
aS'XNEzbF_xXKGboGUnvyHOmQ'
p11
aS'chQMtE0iF9CHr8T-ahkrKQ'
p12
aS'1Io-PtJ6Ml0xVkGptp2Osg'
p13
aS'7P9XY8EoBr-Ksoh3Xtq0Xg'
p14
aS'14fTII5Rm4PIFYJ-CA4PIQ'
p15
aS'aV4g1yMKv75FZGWs4a_2Bw'
p16
aS'jsMv_hb1tzP9Olssu1xAcA'
p17
aS'Ldf1VTbrd66IKzhhLcNjdQ'
p18
aS'twI1-9PZH1y8csXQ5VsrMw'
p19
aS'dALQVAx5qdF3F-JzT32ELg'
p20
aS'iE1eq7kDacRwgvFZJmjfgw'
p21
aS'RhbKqihU7FVUo_QJJy8m-A'
p22
aS'ELs6WFzaQVeTWhltdUFb7w'
p23
aS's3rFXOBK9SSeSI52PYfuKg'
p24
aS'JlHsF2WJz5Veys7aKsKdaQ'
p25
aS'5wMT4nX1nAMTVoQtoNKEjg'
p26
aS'y9tYQZCWVWscFUuK-xoaMg'
p27
aS'dA64XqxzgKiDx_PA-V30HQ'
p28
aS'_BTtZhf_L_dsii3NAKB-MQ'
p29
aS'K7B9-RFdQ2nMNws7Ph05Zg'
p30
aS'fzBDUWZ8oxtcL9gmSvxLcA'
p31
aS'-tNKk-eCLk_acdp4vEYcpw'
p32
aS'bZivzFTkkjNtUBSuMhoCtg'
p33
aS'Esn7lfc9w6KVoX61FsXM3A'
p34
aS'R72PRg4ZKOjstjUiTCUWTw'
p35
aS'8SlI_CYByLG23erfzobK2Q'
p36
aS'm1ulEXktflaiA0UcuYuMHg'
p37
aS'RQOd_O3SWxA4wGjM3rYBsg'
p38
aS'F3j83hSF8-RBUEvLqHeONQ'
p39
aS'm4Vdae9cdx7bgr6bIjjbkw'
p40
aS'zBrrtMoBUCMSLiy-v7pUfA'
p41
aS'97xusXQsJiBSyFfGgV2PIw'
p42
aS'xQJt_caQXk6rW1ou9_mKJg'
p43
aS'_Gwva9y6M4sjU8OTsrkBrA'
p44
aS'NkCGz1NSdEgOSpHtpiHyog'
p45
aS'q0aEHYyFzuiazt8qk_2S5A'
p46
aS'TV3rNwJxsHNFk4osCDEDAw'
p47
aS'P8rSye_7l_2P-JU2IzKkhg'
p48
aS'xsrgYzugnt-VwQPOtKiqjA'
p49
aS'GGXtuLHpWWhkUpVynhFHWw'
p50
aS'pBBN3KhKTETvjeWg-MXJGA'
p51
aS'VNAwZUh2pLSAn9oGpYBC7w'
p52
aS'QXWXLEVGeONoZHLmHuFemQ'
p53
aS'qcB-Bwv2Gbl9vOPQcNH-BA'
p54
aS'Z3Ebz6iK7yLEMeTe-iSXlQ'
p55
aS'ejfy33R1avFm7oygL34uQg'
p56
aS'7ygQVKCG3qwlPCc4D4Pixw'
p57
aS'NzmViJlxei-alIHkM6gVbA'
p58
aS'rkGPf4cbyUJqHgKZPvaTnw'
p59
aS'l5GGMobHJvzaQO2rZFwdTQ'
p60
aS'iq5AnhmfKHyeP9G0X8g3Sg'
p61
aS'dFB-hp_RBPMpfkF7RajOMg'
p62
aS'Pl1qDTX90DSLHo-ZAlAh9w'
p63
aS'naqJ8iKmZ1m9YWOyvgODZQ'
p64
aS'W6CL0xexbcBP6KNPKMNrTw'
p65
aS'd4SBAjHQ6jCfd8mqjF4jQA'
p66
aS'4kSWilkz2MRpLRDBQH0j7g'
p67
aS'9AbyBqGWHYZC73GlyAuTrQ'
p68
aS'hHl9OBDmRxcLljTZeXx86A'
p69
aS'FG7Js2aMD6NtMMRI0C8Arw'
p70
aS'Y2nuyOKrr8Kg9omMghnHWA'
p71
aS'f6DtIh2byFQk9PAcE624_A'
p72
aS'sY2mbGaez44SvU_P35ipxQ'
p73
aS'y40QDpqK7b2DxzVN7qobVA'
p74
aS'nEsrTWfitsmPWdrESYXS8Q'
p75
aS'Amb0K1vG3C3lY0FWmQHUWw'
p76
aS'ywea9tHgyxdEymLls7wKPQ'
p77
aS'0gQrhOYWdO0XVZEKtOrvaA'
p78
aS'Ed1d7DhO3J0EE7W149GTxQ'
p79
aS'BqDX1239tgsaE-_sUR0yIQ'
p80
aS'VyJSC_gG0oJedoGyoOHLMQ'
p81
aS'VytShwYJ2xP0FCULuWa2YA'
p82
aS'-_v2x-BHC0awbCykFJEmHg'
p83
aS'-Al9ySAoa5iDhrYWddkL4g'
p84
aS'caFlgAhbLswnEy0WjubewA'
p85
aS'vcX9au3IW-Mwv9SNZ_0jQA'
p86
aS'aVNZqbolVkb3o0iGCmZO4w'
p87
aS'FN8DhpdO4UBnynOzswVCCA'
p88
aS'5vq85Qb-d2mL8lRAX6tjOA'
p89
aS'cT6pMZ5bayq-Jfb6urGTnw'
p90
aS'pTtB_1qCecy4BonW2z65jg'
p91
aS'HIiVx2mseVWKtx8TKfWC_A'
p92
aS'ILR7O-7tbfcLTlUume3vGQ'
p93
aS'h3ZBi5XkyN6lBc9-W6bDmw'
p94
aS'VdVoKQmLbod_4qBLksKIBQ'
p95
aS'5cGDfjcMmLv4YCN5_J4VxQ'
p96
aS'ojg5gz0RP0Gkb0yogcqA8Q'
p97
aS'jChJBT0MKKZeSk66HxZBdw'
p98
aS'FRT-kdKefurxLzcsW2JNhw'
p99
aS'R4KGec-dXJFG1rYWmfXmvQ'
p100
aS'rlaY7svfLnNzgEYKEOhN-A'
p101
aS'oHjoahzL5F0m-OGDQouEGw'
p102
aS'0uP4fNs06SkeZqIm3ZWaZw'
p103
aS'wtGArpfNEvvYDSn6UVKibQ'
p104
aS'OedV_QX8aD7MeLqshhWkCQ'
p105
aS'9ujjIKCM4IfsAuXpDFV6Vg'
p106
aS'zDfs1Kyk8orFF8bRnSPx-A'
p107
aS'EoUWD6wATa-j_PagZSjYFw'
p108
aS'5t_is8G1Ti5jNk6cH7dGSg'
p109
aS'6P2DqisDHtmD4Lvs2sMP-A'
p110
aS'dbXi2Ebw8y8W2qBtbDHXxQ'
p111
aS'GZ8KctCJxGzYZ7aAdapprg'
p112
aS'fm7fBkqazKj1C-elTKsQBw'
p113
aS'zcaqnIty7lIb123EeUzokQ'
p114
aS'bGeBLbhwk4vMwa859GRzeg'
p115
aS'11TvD4sCfA8GEqLDANpbSQ'
p116
aS'MXM30GZrf4AeqR5p6berkg'
p117
aS'jGldmslgIegQNM5kvb851Q'
p118
aS'0JhyZ4cN2BUlYTCYdohcjg'
p119
aS'90upndp71FwHEET43vx80Q'
p120
aS'OY576QqMcpLD8yGq8lVR5Q'
p121
aS'Q-hSD_aOi3S5s2zWNvwD4w'
p122
aS'8lCQbKrnAskYqEJ63-G5iw'
p123
aS'nxHWeyHmzf1mMskZ5O11Pg'
p124
aS'r6p1cjusR1_B_zDtvfirJQ'
p125
aS'cHuLkEKdPV84ZgXT-8a0ug'
p126
aS'd_I2nyM2Wlc_g6aWTdAkIQ'
p127
aS'DGtOkc0KNTyK8rDkmsPNYw'
p128
aS'pyU4pTX19Rkbb23CG_tA5Q'
p129
aS'v6lMcqsBUT02TdO9ntvDpg'
p130
aS'KzZ5Zww9W0IBWm5S2loUmQ'
p131
aS'd9YCJrmmXp_Fhz8qMdZbPw'
p132
aS'OveJgGrAts9Hak0-JQQt-w'
p133
aS'FYXut4Km0FzvFY3G0sYwgg'
p134
aS'XxHGWXABu4SCxbzS5jtkUA'
p135
aS'OYdhdmejrmymQRa-gTaP4g'
p136
aS'w-KjLZY8Nsv3zsD_qZJo7Q'
p137
aS'nMwpNsOSKV7PCqiblhZo0Q'
p138
aS'WJC8HctIbxatLbcuez1UOQ'
p139
aS'EQxR8CKkKSmHW0fgtqVosg'
p140
aS'n_YHTTG0QIjZ3055wReefQ'
p141
aS'qdA4qiSXjaiuqO4SueH9VA'
p142
aS'qea7N8VfC9bLaC4BcnQ7Qg'
p143
aS'Y1jkxceoqE5LrTL5eqPXsA'
p144
aS'8Hn5X1AqgmSLHRG2KgBJBg'
p145
aS'M5w-VilxnZkbDJkHyZq0Nw'
p146
aS'Qd6llBJMBqQ6RV540jxoVQ'
p147
aS'htMf9hWX1cHscJOipXmjCA'
p148
aS'oMycF1cQgR1UVkafXfof7A'
p149
aS'fJfh5j2f9AhivqGelAThsg'
p150
aS'3-RZKoNAQ2_-_8du4hLRRg'
p151
aS'2ceeU8e3nZjaPfGmLwh4kg'
p152
aS'U7jOpLoLXYphWFqS6JO8mQ'
p153
aS'18TUn9oiW0k0yB6lheiOvw'
p154
aS'2Z35_AsU6qWU0YaOftjLVA'
p155
aS'6JsS63IjByxlPpZ_oIMNZQ'
p156
aS'UFfYVoK3RwDVo9eb70Fh9w'
p157
aS'1UydNTqQQ-qo8l9JTg_b9w'
p158
aS'iS2G-sU-A6CBEwBgX4kwuw'
p159
aS'N-DFmcKLm5BxleZJGoJ-dg'
p160
aS'dyd81TK9jY-WLt6UbMFWng'
p161
aS'NPDwKpXSVToTXVMqNq6KBA'
p162
aS'FKgeJerCffIN2PXZUk1jDA'
p163
aS'h7hr0v3E1ulU2sXNItD5UQ'
p164
aS'MLcXtnpzygZvQ9BtseLLlw'
p165
aS'RFMcLH3_58eAwvSfvLhJew'
p166
aS'Ae4Of0a0eUZ31pDSou9X-w'
p167
aS'7Q19H5nM3oFRyCg_j0QV1A'
p168
aS'r6PWYVbDY4c-XqeXpu0u3w'
p169
aS'OcKBQXkd6H_-VvTOX_dOxg'
p170
aS'LtdVdYhs7MAwwTBuHhdsFQ'
p171
aS'C59Gr3A35GMqKs593mfxVA'
p172
aS'vPBjlCkTLZ6vsRFEP6g0hQ'
p173
aS'61t1QljXCPQ0ZcorIGYKOg'
p174
aS'HO5T8E2yO_hpVmfzI6OXbg'
p175
aS'yPJFfglhMHAKciUpjTmgBg'
p176
aS'9HwUkbKAv7dO3MGlkkJJSg'
p177
aS'pYaTHEgcpSei6xfkz2GUow'
p178
aS'BM0-dgPJMBMmcmO9PVCJfQ'
p179
aS'EJtKp4zxxZajJuVJu5qfgA'
p180
aS'C2fIrPfclO93U6C8ZGg5Fw'
p181
aS'hfvKCAdJc_tUne9LPoC-ug'
p182
aS'OSlTIcDNSSt_83ciKwT1Xg'
p183
aS'wBKo18dDR6rWUfAuOC40fg'
p184
aS'EMGkbiCMfMTflQux-_JY7Q'
p185
aS'2pZG0C66ilctnVNTsh3jyA'
p186
aS'ASAwGAi2bsSnFhccBhT4ww'
p187
aS'qJyxVhN7YuR1wlp1EK0uqg'
p188
aS'4uuUxywiTmzzOHxRrcxZLQ'
p189
aS'bGPEviF3GLKv7hDykcjPwg'
p190
aS'Ap6gsHZAT_ALSmBg2Zut3Q'
p191
aS'MrgM5sZ-GBLuufTYHfjvEw'
p192
aS'-aBTFWuluGAJId7C4KNqeQ'
p193
aS'jqZL-zsiAcWYakm-wjJBFA'
p194
aS'fAuFm0MlMNfTt2YrbM6aBw'
p195
aS'iVnEnR4uv2_J9VyV46boeA'
p196
aS'3KJHfZrkkdwd9P34Xdr8ZQ'
p197
aS'-ijqzP5H4UCk2CEa6RRKQA'
p198
aS'eMHJP0ANVPcboNXqPw3Vdw'
p199
aS'S0wvx9r-Pt3hTXLynP7qzg'
p200
aS'Xyfl8gTLLZnuF1Gpt4ZRlw'
p201
aS'-_Ke8q969OAwEE_-U0qUjw'
p202
aS'4hp2dLiJQ6chAw98S2EiaA'
p203
aS'jn3OgTqiQIFymRA9U0PTfQ'
p204
aS'RvNG0jm44n7D-4qkm_VuOA'
p205
aS'1vFDFWDrlVSDEcuLTUD3oQ'
p206
aS'bb0ND1Y4bZ2lncm7Zx3OwQ'
p207
aS'2a-GOytQbxt8wim9VuHWsA'
p208
aS'i0Y3L91iwCB8acBBqdh9Uw'
p209
aS'D0PUyt1EbOJKdLh636hwWw'
p210
aS'SAEr_2rJLNFr3aPv0DlSWg'
p211
aS'6NAOp61ozWlO6KCxTlgCkw'
p212
aS'oiLe3lqMFaZtsSpRuIUChw'
p213
aS'JIX54YCDVh4ntZZGnuLBEw'
p214
aS'RZx2EgjYsl58VF4BexHplw'
p215
aS'XgVyl3T3Zn_k7SljAJ1d0Q'
p216
aS'2Oc3IK0yxRBYHPXgb7_tMA'
p217
aS'hYooRvt98mjOun91EyKPNg'
p218
aS'NAqzx0DFP2mM1jWS2hiOEw'
p219
aS'e9v1MmkWORl2XXKiVouvLw'
p220
aS'zruUQvFySeXyEd7_rQixBg'
p221
aS'te-5x-HhFgSWwBkGSG33Kg'
p222
aS'9Af-aZDD7RS6lJrLU5eI1g'
p223
aS'f0d6rKFQSvss42fGYTelvQ'
p224
aS'8rLDOix4gg-zABMHZsYsKA'
p225
aS'jxT47P8UBZTR2dpxwrvhWQ'
p226
aS'C0Oax-LBEFf0mmPSugymEQ'
p227
aS'myAxZJ_Tvyx_I1Z4wFqxRw'
p228
aS'_PqHNiYiAKzM0TYugQD2_Q'
p229
aS'xs1LHeJy78u-7taSEnQ2Yw'
p230
aS'iAe55bO88EwBiPL2GhwBew'
p231
aS'xdmT9sejRDEyud8YFbEcjg'
p232
aS'XDUulMX-He-NY2lFmL8lqg'
p233
aS'4vZZjr6IZAk4riT0DB8MbQ'
p234
aS'vBRJWnMaAqUyZ1CbwnJXLQ'
p235
aS'Ao57uER6nnpa2KULpZDFrg'
p236
aS'Snu39WyiChz0NwFWRMyUvQ'
p237
aS'HSMFo_StbE6xCdsbrPibag'
p238
aS'Yiw1ml0XVBDIQBTLXHNGmQ'
p239
aS'YEQkTCmphjr6XKPh4m93AQ'
p240
aS'F5-k-QxSGuK3oGNMknFFDw'
p241
aS'pXZtlGpKm-AHLPjD-reuIw'
p242
aS'ZgT_GjPHjwzk7l04xU-u_A'
p243
aS'U_aP0IJdn36wYwpiCtQCag'
p244
aS'9wWLF9R90BCWr6lCnj5WzQ'
p245
aS'fZWVI2Bjk6wJoRUB0s4Pzg'
p246
aS'puMcI6XOgAq7QOy0vGcv6A'
p247
aS'v_aTapvcfKRL6O5au6Ru5Q'
p248
aS'AGYchdte4sk69cFK36qaag'
p249
aS'ps4-uXHymYSa6tjxLVZ-wg'
p250
aS'4CC4J_bepXOiWVS4CVN6NA'
p251
aS'0MQ3inDAuiq43TN9hw_Rbw'
p252
aS'1TK6VbNcI-vvcNXbAgydew'
p253
aS'u9b49Z4JmvbP6KTe26lyoA'
p254
aS'EHIZFzQQ_mjzwyjcaToPtQ'
p255
aS'4UA23_ogdJ14E4_zt5iN5A'
p256
aS'31yTVsCyv6m-QyI0OFdV0w'
p257
aS'cbFlhBjmvV5XgspysHCQtA'
p258
aS'I2_yeLfTzXHGwi8an0tL4w'
p259
aS'Xs__MjMd8MWgJWFqnAN11w'
p260
aS'QMsUey4Xi1VfHkwbI8YxdQ'
p261
aS'TKJ2qE4NQfTBvekYs7JkGg'
p262
aS'u3_amLppmBrfBYUfaI0nVw'
p263
aS'3RrRw6ZCsLgHEdqJQj5wvg'
p264
aS'KPffNxenVXEbKeSeC-zmfQ'
p265
aS'Y-NqaDy_1bb-Y5dQ33x-Pw'
p266
aS'3lzvwV2W1KCUoxXC4d2ljg'
p267
aS'laxWwc9bSsNVXR0EYW_VmA'
p268
aS'3MgiBDv_rTALZQPDTixrgw'
p269
aS'cqIHyZ3Q0D4vBi-vb4mi-g'
p270
aS'x737irkRUs8ABGRc2ILLAA'
p271
aS'kFor0yjGhdpMEdZ6_8OsSA'
p272
aS'FMvGVdQ8Q9crbLD6n2unDA'
p273
aS'BCzitE7ShK0qjGbbisjKSA'
p274
aS'211DetkFdxd8sQ54CMU35A'
p275
aS'Ba1WZ4fWqJZTUwsmS_GDbw'
p276
aS'5EWVJZd9cSAMwkrwgOFd6Q'
p277
aS'3zCjmGvPVuqFyBPVRfr7zQ'
p278
aS'NCTWWEZ4ROEgjfJ8XG2B1A'
p279
aS'Oi_OT6erHvm6lb_D8bwslw'
p280
aS'NjcogL3-GGwOB93I8cQQpg'
p281
aS'23ZdJdkJVf01a_YGEH5wCg'
p282
aS'RIeWXLMHZQlYprYt1x2f1w'
p283
aS'-iGegnCdHR1IWw4D_240_Q'
p284
aS'4SOStf6SeArVG6HsSwfiYA'
p285
aS'bS2iENq-r03NA7HcON3ujg'
p286
aS'LEm_pE6w3RMG312tVwuyZg'
p287
aS'a0TcvyseEbwRaKl-I3DPoQ'
p288
aS'T0BOxZcv32gb4jUkhSKHMw'
p289
aS'YMVY0BvWqb9mpQHbRsi9Xw'
p290
aS'-AAig9FG0s8gYE4f8GfowQ'
p291
aS'TwKjGBJ3-4KcqWL4XA7I1w'
p292
aS'yVQiGdxmnrkJDyQXv2maNA'
p293
aS'U-uTG4ofQoaCGGY5MVsJsA'
p294
aS'WclLpwhMEJo9GOwkdu_tOg'
p295
aS'kFUku0uG1OzQ4OFC__FyHQ'
p296
aS'qw93CjlAZ6a4ff11Z-hF3Q'
p297
aS't_MW3VXc4mAOpBmDr7XxSg'
p298
aS'aCwCa7QMycZInFChAGU9pQ'
p299
aS'4Ur1TXCPMgicKaYlmw24ow'
p300
aS'NHBfYwGcQk5RUVCbnpWRsg'
p301
aS'C3JUma5uO3f4zqPJQwRpvA'
p302
aS'cX0BRezhCTm-pkK8_lwWAw'
p303
aS'NrDzhrKRsqf2n-ubqGm20Q'
p304
aS'Z5v1F-tAV897ZmM32N0wfQ'
p305
aS'1EnMK0EMcRJrzVtB-feNXQ'
p306
aS'lW8-lFQ-mwG-Wl6iUKoT6g'
p307
aS'hNx3bcJT3pjw2hxbLhMy8g'
p308
aS'uxoibUaXA-lRXM37ZV8Bsg'
p309
aS'fmWyI5ec05F8PJpx3eNpLg'
p310
aS'JSjzT7N3kqZPgDtp3fBOOQ'
p311
aS'-34jE_5dujSWMIOBudQsiQ'
p312
aS'449NKjoStRMoknyBqrVnCA'
p313
aS'Mdqr92qTEz87eqZ1P5f_NA'
p314
aS'6imLt53br7SJ3av07jjH7w'
p315
aS'plL7-_-KJzjiaow_aSfQxw'
p316
aS'U4sjlIG1Ds_4p1OP1Yp9EQ'
p317
aS's8cHXeSlX_aPI2x49UkCCg'
p318
aS'ZY8u02RXdfQDtA7qn2Pv9Q'
p319
aS'2PnWXf9kv8zXyikOMppcQg'
p320
aS'UdiM_geZR_dDNktgIMbgWA'
p321
aS'9LF5u2jiMjRNoWrxv2kLTA'
p322
aS'-7DxAxnXkAlTXUrtByoXAg'
p323
aS'VunxvaLKBA5a4Od-Td_M4w'
p324
aS'QiBNnRkMZ5chmo_9eOzv5A'
p325
aS'mhQCxOiqp03qnhGRTtPduw'
p326
aS'L9__p8Z6bpewbJdY9tCkuw'
p327
aS'cPmbPQepAatet3QMUZaSeg'
p328
aS'JPZYmeaPNUsDMLcs9UHyyA'
p329
aS'foyb-54uT6lU5PM0X-fyxQ'
p330
aS'qip479gfulCBUWzeDornJg'
p331
aS'6HAKrJvqrwyL-ZhyDX2JNQ'
p332
aS'0rd-jRz43JDkx1ghoHnEXQ'
p333
aS'lIV2xEgzAqlcyjLTqKdbWg'
p334
aS'G7Q0Tm2XBI5rqd5wyUc0jg'
p335
aS'CIYm21M4nREGxg9RV7qhqg'
p336
aS'8oFmC-QG-pwjkeHjA_T8XA'
p337
aS'kYQxOeJRFYats6cxVFnILw'
p338
aS'Wastr7uBOsGd3vjplja1yw'
p339
aS'H8DvkkOFoAVGNK9ka_49kA'
p340
aS'PTSkqYJ440lxe2CDfkoZeg'
p341
aS'8o-NLKy_XfbJtqljX9XLCA'
p342
aS'IHL2m17grW08vP8YyFC94w'
p343
aS'H1mGrkK_HwxAVKbcA1Izvg'
p344
aS'DE8UVNCCpOE0vTAbGaMoeQ'
p345
aS'P3DbF086gy6yMYIgTdR9yg'
p346
aS'VWcaFOSFcDwmFquycBzFyQ'
p347
aS'cvm4JJ8wO-QKh4CdZjh1mg'
p348
aS'vveDGmKGEDPrOgp3ff4QPA'
p349
aS'Pkuos7mHkVojjQLovCVKwQ'
p350
aS'5npcHq7cvdJlgQen_1n80Q'
p351
aS'nTJDEIm4cKjPehJgzFCqww'
p352
aS'vcfQI3Tq8c5_nBimuwdNtg'
p353
aS'6Xw-SA9pgUVPjUsCYI26qg'
p354
aS'c-uu1PnMVdwP1Gcj36keyg'
p355
aS'glDy-a_H8hEuUwKp7-RUcQ'
p356
aS'HXM83dx5x9JB-TGhJBg9LA'
p357
aS'x9ZpJWtTZ2gPc3PnQ2KqpQ'
p358
aS'iOIFxw2XLo4I-Clu77u6yg'
p359
aS'MTg6msS77hgTwPNOJ8qZFw'
p360
aS'EwHIy2ciDTtmlj7lpa9dng'
p361
aS'uJ2DfS-7EabzFDRaliACqQ'
p362
aS'7rCjBk88K6gyLg8FMnGHnQ'
p363
aS'5BnsHDWrt2z-9d8AzSgkjw'
p364
aS'Mvdzm7wYENcNZtnqbUuRFg'
p365
aS'3Z88l4UO-FoNbYk_ZpTScA'
p366
aS'dec2TzjQ1skgmugHKJyLwQ'
p367
aS'kta8ESyvbM9VlBNWjKzy3g'
p368
aS'5KFA8oi5vJrS71ncPfTG1w'
p369
aS'Mh85-BDqDHlngT8G2ZnRWg'
p370
aS'xt90san4OOSMFDAIdHcKsQ'
p371
aS'Mfa0aFvpjQ5llU3dq71i6Q'
p372
aS'P9JOqvTEZfzYq7qom2Qxzw'
p373
aS'EFJAVVBQQqftuqY5Wb3WtQ'
p374
aS'xWcTt1L4vQC_QkPfPBVlCw'
p375
aS'aTI-wIEcWxj5k7DYnRe1Qg'
p376
aS'Exx5ffvnmk4MrTyCkPRuug'
p377
aS'nDJ9Pbt0RF6iXLgVzGyC3Q'
p378
aS'f8k0MFgxh50_UfRQDsilTg'
p379
aS'Qalu-sgJYa7blufAef_cbg'
p380
aS'vDYERdCM8Aj-MMJB9yW3-w'
p381
aS'e9QRvkzssPNRmBLlDem9ZQ'
p382
aS'sjt_q8eyAKkzUOtFmbUJPQ'
p383
aS'Iiawi9j9SMLXXDYzgt2tFA'
p384
aS'fF6m3qsD5blnwuZRuYhzWg'
p385
aS'Eig5Ax6mc-mQneZGRsBd7w'
p386
aS'TP4ibW_dRx-jIJM_Ytz22w'
p387
aS'iOITnizWLD3NlKxRtZd5AA'
p388
aS'sQnIwxSmu3toihB-BCYjqA'
p389
aS'PdOBQmHza-h-f-xq1Nx13g'
p390
aS'B8-4H_dkfqA1HWWfkW7hfA'
p391
aS'fyy4WNuchHJBa2zH6L8QQw'
p392
aS'PNQ7JyMNfC0jDA0-a4ypnA'
p393
aS'hBHkHYOk_E-6EgObC6MTdQ'
p394
aS'-sTBvM1pOpZts9dnJ6_5Xw'
p395
aS'fWPg3tjv0hZ_yKR670UtSQ'
p396
aS'9GQGdlzMo8Pr33KfnPXtNA'
p397
aS'tWZggyzTz--_agCKoW280Q'
p398
aS'oSDf6BHiMlKGZdFFmIo6NQ'
p399
aS'VrqEeynr7KqucvEjpz8w_g'
p400
aS'M0Ulu3PzwBumgOZJL-6KnQ'
p401
aS'732Z5HGLEEBjAgXxfnuXlQ'
p402
aS'83nWnjqWcvJCQ49IHwNh1Q'
p403
aS'mNjLNTOXSckssvYNn-ZFjg'
p404
aS'aH7tMXrQgpATdVAlClStJQ'
p405
aS'KzQU6aH-vbtOw35waSq0-Q'
p406
aS'yZ3U9mwpSOnArUBE767kxA'
p407
aS'GMTEPYvrSCTWwEypmuSZUQ'
p408
aS'tJplzQDIfCXFFO5wG50rpg'
p409
aS'xum_qMqA2QP4WplKJ4s4lw'
p410
aS'ygaVyUOaLbTqaqXK0DU1ng'
p411
aS'F9ltP8ehl9F5F5RCLyRvEA'
p412
aS'1TJItj9VfrCeh4TM_SKQZg'
p413
aS'PQcxj2uO3smCeRxEFKCRJQ'
p414
aS'bvLYyRiXFjHxSmARAxjj3A'
p415
aS'47HFG_e5bxnlOuT8dG5xbA'
p416
aS'KqmXe3xJz0_Qanoj93BAtA'
p417
aS'XsGbdoR1o9ZuWNDIP4nQJg'
p418
aS'XVUkt_BClA8amU6_epmRaw'
p419
aS'lTcVJXN-auM8CNbhhTytHQ'
p420
aS'XYsCh6KgDTtnb5V0yxr0EQ'
p421
aS'UHkRFDFze9tYfYT_xjn0bQ'
p422
aS'EmlgWjs1ZzZEpDjZCSPLmw'
p423
aS'zENkQ3CGMkANafH0jwIn_A'
p424
aS'xUrjU9S-xbTlaL-b5k4p1Q'
p425
aS'Z9yk8Y0CC-zyndnkSxW2vA'
p426
aS'b02lt9MkIhiOgrQozTARsw'
p427
aS'wNJfatPwOnGtIKvSqvu1mQ'
p428
aS'FBuNLiL2KILEQ9e8SbNWPw'
p429
aS'F6w31tLukw6LqiTCPK2Ssg'
p430
aS'R-aDr2HjBAHR3FoL2Dtd5Q'
p431
aS'NN9dbEZF_c4YNgfWWAEVig'
p432
aS'T_FMm8BNUIfUOhE-ScV15w'
p433
aS'3DCjixw25ebL2_sAvNUBUg'
p434
aS'k-mgClq6Burl9CGIExPEHA'
p435
aS'ImnlChSdHTzm8irp2ezl2Q'
p436
aS'wsSm8wDAuNHKGOJKmoqsGA'
p437
aS'xLaUsDsNaX3_E9FoZRvzQw'
p438
aS'd7V3ykQHqChv0KtXEanKLw'
p439
aS'pHb4JeWPn8GbyyRjkQ2r2g'
p440
aS'A8kJ7nzK2FU_IPkqKbjd1g'
p441
aS'fkoiZ4YDyIe8Fdm4tNBNGg'
p442
aS'fmuj7u1gflmEjW-h0v9bwg'
p443
aS'0KpfB2WH6NvThfp2J98sAQ'
p444
aS'Qd12-z8Ss4pdqQim0yetKw'
p445
aS'RPgsrBEcc4NWlvnaW4Hwxg'
p446
aS'8UNIvvsmtMde1WtlNtdreg'
p447
aS'O0ayL4r9AbonKwdgelBL3A'
p448
aS'ETw49U8Pd6n48jXX9TBaow'
p449
aS'Jw52eQW9RtGX8KCkesQLxw'
p450
aS'TuCAYZ89lP_s6D7Y78xNhQ'
p451
aS'y_tiOBglwo64dN_J6h6rtQ'
p452
aS'L7i9j66ph3Uz5i56OXIICg'
p453
aS'GajQ5XlQEzC5UM9-8OM7rQ'
p454
aS'T82cKFVduIINWbHrz2_YRg'
p455
aS'_oBxfuBd2qDEWaYsdvP_dg'
p456
aS'lK6y8VnWGm2f3n1xlm6FKQ'
p457
aS'JnCtEM8rrPcg6ME_ivcLBA'
p458
aS'zng_wWcRY668FSgdRKOhIQ'
p459
aS'i-0DzAP50NT6fBsYl3Rqlg'
p460
aS'XPGStJdtPXcsqVvJ1KRqGA'
p461
aS'Z81CSV-jESOzORrxxRjkAA'
p462
aS'vGI3QO3wDBuQ2fPXVJmL9A'
p463
aS'JGOB0cOQWmt6vwfCUr_ZAQ'
p464
aS'kCH4JxdKdwDfJdNFElSHzg'
p465
aS'BW9GH6_h_RJfpz8JY-wFdw'
p466
aS'CxkJUY3ilqF8TiJgzNhU7w'
p467
aS'rRSrENv9j_rLnehMlQEukQ'
p468
aS'GBbnA71zaIkLhWbunn7uvg'
p469
aS'N_xmefo_3IIGa7ovAwH78Q'
p470
aS'nS0ED-jcHilagw_DLVoCDw'
p471
aS'odb3E_5L3RVplIlkRwvmMw'
p472
aS'TWsI4hcD-h1KcL3YdNm7vw'
p473
aS'N4KDipEdv7lCYYtFv-oKyg'
p474
aS'imvNxppzxkLUPH64pQsDQg'
p475
aS'CbDDTk6AW4nQlSU3a9721Q'
p476
aS'QJP-bRQvtGvShgs4AnvZKw'
p477
aS'rXiYH8FU2Z0tGdpGg-tudw'
p478
aS'JNt63pOmXJ4Y9u8KMQNvjw'
p479
aS'1xGhmD8-UjoRbGcBqkc6cA'
p480
aS'wdV0pJ4xNi60bME_pXK2dA'
p481
aS'Sa9ayyIx3BewF1ThdR9LaA'
p482
aS'3Q3XOX2wrwmmDL8HSdvy1A'
p483
aS'XBfr_gB4KTjYGcJpTMeRqA'
p484
aS'eDuPWEk3YgSOI4ZQRVG3bQ'
p485
aS'U9mhPrFfu-r-Z-HiGDU7YA'
p486
aS'3Wxp8wNfUuYUohTpNMLotQ'
p487
aS'JgA_FDowbryQiKgs6ruBmA'
p488
aS'ExmitXhX5exM6y6W9JXXQQ'
p489
aS'XpplgIJWMzWxsRkrLVqHkA'
p490
aS'hlekz2L2HV8cVSEkgMvuEA'
p491
aS'wK2RM163ByHaGixGn_UzuA'
p492
aS'oj7XQKg68EINWI-ko17emA'
p493
aS'UYrzcJMNfczRG4J16j8yzw'
p494
aS'8KDB8MYNPlIj73jxrzVb-g'
p495
aS'HBEpsQ9CaTWjspIOH3KI5Q'
p496
aS'ZCbYSX9gp4ZH2lWKOUuk6A'
p497
aS'V2isTBBfO0NgLzXO9oq1Mg'
p498
aS'B_fVPPUxw0TA9TfT5NB5AQ'
p499
aS'sdpBEhzeDedh7SVe_OMpGg'
p500
aS'5-Ba19GY2Hz9WBFbFqxwBw'
p501
aS'W4WHDkfn8te9C20bACbGxg'
p502
aS'7MEL81yBNJSuUldzz9lsNQ'
p503
aS'LJQiqVXKHWw_7Z8NkkNgNQ'
p504
aS'lmVcr5vBW8DJ7NT7xezynA'
p505
aS'txc55aaN_biyUDo3vEDwXA'
p506
aS'UtUXhKh7vOVvWJF48IzJvQ'
p507
aS'a1EB77mHK5AGXqoGgPixvQ'
p508
aS'3dOUEmJjFfb8iW0H-kbEzQ'
p509
aS'Hyi4ljxiKaBw7sktpmTsQw'
p510
aS'AQKLW1rUZVVlPwW60mxRtg'
p511
aS'lOe96udVTehPZsJW6ZeR-Q'
p512
aS'IrZZOcsO8AvoRzwhrcdazA'
p513
aS'TQNDCD50mkXwySB_qXmrXA'
p514
aS'NFMGUpLWH4mHFBl1cW_9kg'
p515
aS'Hgbxen9iKGL4AH6kKgC8YQ'
p516
aS'5A_vuyESZFU9eCArpVfJCw'
p517
aS'9whGt6zd2ulTYKqRNB02yA'
p518
aS'B4gZkGO_MtZRXt20yyM-EA'
p519
aS'JJzmlkbpLej-bSa6RSXo8w'
p520
aS'Psrts-3bLgvp6F7v1aL0SQ'
p521
aS'0Vty6xYvihX-kmsocY1HWQ'
p522
aS'myeXjkwF1D-mQ9HDJjDmew'
p523
aS'kQQthrjC0I9Ph9xJP5ER6A'
p524
aS'R-FdsfWfBtp_cam3wcsz-Q'
p525
aS'sc4L3dweqQnKtyBZ1kNm1Q'
p526
aS'zMa6YoEekpABg1HZnnTZdg'
p527
aS'he_b4txorHTrKjH5DnnmdQ'
p528
aS'V1nEpIRmEa1768oj_tuxeQ'
p529
aS'ZrIJT2yWTRpN3DXXBZmRyw'
p530
aS'oSKT5oZX1NWYaHwOWL5lag'
p531
aS'MHPXDXVE_cUYodfPhkadeQ'
p532
aS'xeJc9ZyVHfEz7tDoUjdBIw'
p533
aS'cgA0nxWUX767CWUC3OHwKA'
p534
aS't6O9dkgQ5wYtJ_Qj1U_kFg'
p535
aS'31bXixwy2GNmRlhpl21reA'
p536
aS'XPgo1sXyVAEL0jpOzGPeoQ'
p537
aS'qsDwZeOLHuiIxOoGdIGYjg'
p538
aS'SFhCBEwULQAfEtd8hPdbyQ'
p539
aS'JdF1nBsMx6p0WwKXIJlfxA'
p540
aS'oa8lhYj-mTKlL_amkJSu2Q'
p541
aS'Hs5ucqGY-IzV4wIYYe_f5Q'
p542
aS'WxcU0u7W7z-91rRoHMLFqA'
p543
aS'JJGBx48I4yudiEhw9fGbZw'
p544
aS'MRntQraGJZMWtfAhPv_JZA'
p545
aS'J4WPiHHlzqrKH4amrFxefA'
p546
aS'qB-qsaSnhbHCt18_AN4Quw'
p547
aS'MLAnvEcvDfOWELHUN_0xEw'
p548
aS'0mCWVfVw2O2nIkG8gADcBQ'
p549
aS'qla1E_Z1BVaoB77bovQBOw'
p550
aS'qpnzXb14cWo8uxkGfKLJSg'
p551
aS'Lc-ZYyI83FpEe-8u_LSODQ'
p552
aS'HAlSlJZBrzLzVmee_IjjDQ'
p553
aS'MDtjD14H1sGLc4tSg0sUhw'
p554
aS'iXMeKhT-mUNTaFKXlP2xfQ'
p555
aS'WKVo9KhwDOwnR_kp3SXrVw'
p556
aS'20h9Q1ReVmsIyE7-IAVKcg'
p557
aS'xrs15F6cWdIXdLHyCUDjBg'
p558
aS'jTALZ08gzKSDctaGLL7AmQ'
p559
aS'd1wRo3_J8toeQQHeaUHbBA'
p560
aS'xNfGoC9CW33GjSPLcfbwUg'
p561
aS'-cnpSvl4FAUIWeXuSdJwww'
p562
aS'_JG_kjfu3npEWIvy2HhZ9w'
p563
aS'u4kPw4Kq4SKbFYfhkfX2Gw'
p564
aS'w85pRiy-a6Vo9DyMc8LnxA'
p565
aS'2WbPaavl5YDN-xxK-Gnocg'
p566
aS'Zhq8DQNkuhKxNXmX_9c84Q'
p567
aS'nS9vAcUKdLJqwUbSP5gSXw'
p568
aS's9RTYq3RCfOYFv2JIzs2vg'
p569
aS'JvY9XcjSQCKgC7LnKNAv8w'
p570
aS'aK8BF1xuYZVzUgi3qAn3Ug'
p571
aS'It8Q9-l1EEtTr9NPpTgGPA'
p572
aS'BTlQYFNS8jAeIDCRF7NtQg'
p573
aS'XMYZk-YPCIUvOXffzVw_1g'
p574
aS'jeKJyRcURXgUC82a6T8GmQ'
p575
aS'AZq_SBJsqsleJkQCksYsjg'
p576
aS'eD3gubPVM3MyAXXnyE-K3g'
p577
aS'3oJvShXv3HYTwl7rlcLFJg'
p578
aS'lbZfKiN9t5FHuMCf3d3BVw'
p579
aS'A9Ojn7IvozyewAOBLfATEA'
p580
aS'Y5clwKIHw8qTpy3pCH1BHQ'
p581
aS'4BIDvQ35S5ULCD2R1UWOdg'
p582
aS'QRpMVGh25uPRXoGKknOyMw'
p583
aS'J5LLvLLSxLKq1mO9O-VDNw'
p584
aS'SYzmXTryMp3vZ-NeOJj9kw'
p585
aS'ecU2fxdAKWn1vwxd5S5byA'
p586
aS'phHXdTh5L2w8vQ9Gsmq27A'
p587
aS'sc1UacpE3cVNJueMdXiCyA'
p588
aS'6sELDdbWi_Cjwp5uZ8PmGw'
p589
aS'8A9m7Ls46heL1I0M98ZHrA'
p590
aS'wJ-JsU531VcSKta0oFh15Q'
p591
aS'UP4f6bbLelwe-Yltxkc4CQ'
p592
aS'lk-6NXfpSgvNw7zm0xtUVw'
p593
aS'6_8wAUMpJX719lrqvuCHnw'
p594
aS'-N_i2F9BDyIt9e1iihVr1w'
p595
aS'sygb2W4NRadVXiWhW8bnFQ'
p596
aS'1_hehqhtdcsYiBQ9rkwDzg'
p597
aS'unEfbsbbRf-xaM_cuiyB2Q'
p598
aS'UVEnZjATEGkKLFdzV_dTvA'
p599
aS'lK35BgpjOMXwchPzqYWomg'
p600
aS'ha3m97grf27exFfyrBys2Q'
p601
aS'xCs3AU9QP7j_1Zx5UHmGRw'
p602
aS'ZGbmoOglp4OaQ_YWuNJZJA'
p603
aS'LE93qqXLoSQZ777ONaJFMA'
p604
aS'U2_IVceEjVjdHjyo3Twmuw'
p605
aS'mKIbMAm-dVPlfMxA17I-ZA'
p606
aS'y1Q3nJR20VMmE51sK5djGQ'
p607
aS'3AgXaXLfxqZn2NxdVoDcPw'
p608
aS'VEojEXbJ81eiPLSSF9jNEQ'
p609
aS'yCHl3yjuhEqd1eeQjcLUaQ'
p610
aS'FHywRwdeksNsE8mGZU4PNg'
p611
aS'hNVcBhJSD5HyLKMf_Z7TaA'
p612
aS'IlY3OWLK4jQ73OdNTZuAXg'
p613
aS'vSFo-dxhQN9gWMaGdiNNFQ'
p614
aS'ESAm7dJIeS9CdWkgYASk8g'
p615
aS'YxOniBNB6VOoVglxDdSotg'
p616
aS'-EctXOb3B7T177jGYUhjVA'
p617
aS'JJ-jDuXLBbAHJUPUszoPTQ'
p618
aS'TPmAm16wQ0tAFRq2uWHUHg'
p619
aS'gVduP3XZDpcn73kXxZxhyg'
p620
aS's82MG3vqzyqQ_olADgNhFw'
p621
aS'-JaNk2DOQdpjTl5Bu-iehg'
p622
aS'hHE4OHAc8dONTV8QsGLbWg'
p623
aS'MZBHbN_kjb9QizW6YWZG3w'
p624
aS'flgqBG9GfVTQN6ITWxOLbA'
p625
aS'NcAI7SE1SNlrOEfFg9Wzuw'
p626
aS'yJ6E8ICe7jOE7bC8F17rLA'
p627
aS'uyuiIvQ3aWZxc1-2i_dQtQ'
p628
aS'yyjpYByQDjGVDl1GLktGoA'
p629
aS'8H1DwdAAgSBtwDeb2R-hmA'
p630
aS'SG_gEmEXL4ID6RAEinC5Bg'
p631
aS'ylDobk6ik4P9vdJJOI-Ztg'
p632
aS'45puCRQ6Vh_IIAy7kkfFDQ'
p633
aS'xVsxFJlEQ_L-LoJU1U8A-A'
p634
aS'-KF9RQPkmIOHfE0tzUu9bg'
p635
aS'50vp5JKtNeAubhPD9cmuHQ'
p636
aS'_0VbUK-ANh1jz7Z9Rot6Ng'
p637
aS'FNZqovk1ZWI_z2YHw3b95w'
p638
aS'WQcJSjTijdBmvnjqLeit0A'
p639
aS'vTzCMU109wT7JHYpsX3JfA'
p640
aS'FqEsXFhkFKCfMiz_QqUKTA'
p641
aS'N6ff0yyo9Cv_7XPz-YDoow'
p642
aS'rIonUa02zMz_ki8eF-Adug'
p643
aS'FL-bc_ZtCGyg8SJsofOfvA'
p644
aS'VEPchmaOgebYHonQtdmVQA'
p645
aS'Rirstpm7F5qP9FzaAsVykA'
p646
aS'm58lhWlKFYYITEB8rMJ_sA'
p647
aS'vu7G9G1Y96iMBNo4z_YOXg'
p648
aS'0Wgkqmf1uJB9AmiQK75qHw'
p649
aS'omxi9nCCCM9OXVGsQQ1L5w'
p650
aS'VDMLwxsKoS_5JpsJIrMYvw'
p651
aS'E2BMYajnI3USNpABFdBn6Q'
p652
aS'Kgdx-MLulANaAxSmvJrQSQ'
p653
aS'N6aDT4tLb3nrecPEQLejTg'
p654
aS'_rPllS5jeX_PWKQagLQgXQ'
p655
aS'427eAOGHnFCmgohhprEgUQ'
p656
aS'wVloHUmLaJA7i-DUpVcNXg'
p657
aS'm7ZeiEJq71akpu4ggCXq3Q'
p658
aS'33rOIH23--oQ72k-QUYcJQ'
p659
aS'WHd8fLeMeWKUK6sPyeB-UA'
p660
aS'KDaJPe0Q5Wdj4GsV78Ye8g'
p661
aS'bN_aQM1HhJdZkpBlewBjzQ'
p662
aS'EmWd7ZHgDgLDjtDmTtZq5w'
p663
aS'3QtWG5sN3HJNBVKn_wHQEw'
p664
aS'wn92ByqysnM5F49IpyoBNA'
p665
aS'4rpEXjl73w89XAKNmVoagg'
p666
aS'KPoTixdjoJxSqRSEApSAGg'
p667
aS'h762dZ33uhSKtLZ-21u6Jg'
p668
aS'dB8_d0PBw2XH3jpbI19zTg'
p669
aS'ASNxwg9dD4-_F4H1uNN2KQ'
p670
aS'e58rZRC4TSmKnMr7aAIJlw'
p671
aS'caSgnXFeNCMpBR_Djr6xPA'
p672
aS'3zUREkipQr4XI77MbkdPPA'
p673
aS'yL8xB1Fx3hTCvqD3NSLHIg'
p674
aS'PoRYjYUSjmeWM1WLsx_45w'
p675
aS'Oq3JpmsRsNVKbwKScAP-nw'
p676
aS'YAu1dTr3LMvKbWyABKmkYQ'
p677
aS'tXJjKTEAqwi-jdPjeBqvhg'
p678
aS'tbV2PnTuo7xo1O0RVFzhdg'
p679
aS'-LunygEblxqpInmp6N801A'
p680
aS'5EsRuaqDdka8J2m2j8X9rg'
p681
aS'70o5uUyIxrTqEdoFx6njew'
p682
aS'sjeZT1tM8N2DWAjI3MIZtQ'
p683
aS'eTbtfgUtfewdncgVf2CbWw'
p684
aS'PEHJjxdw11TGFma9Zhz3ng'
p685
aS'QjRviSpE_dMEuSX-fzwrMw'
p686
aS'uDWeFLSKBOa57C0NmV8f-A'
p687
aS'BbjtUK0_FeBW_dlgWTfQMA'
p688
aS'2SoJSPZI90aIpndvKSQvCA'
p689
aS'hwy_8IrXgfzT4UaxAoUVxg'
p690
aS'-8PVP-Pnv232xPOUgPrxmg'
p691
aS'8GdqVk-R-D9hpq7AO7cvdQ'
p692
aS'OCfXJuLuGKS0s7pZsKCf0A'
p693
aS'JGTPb06Ix_v7uq3HADzq8w'
p694
aS'8fLdtZp0q8TjVTsqfV6byQ'
p695
aS'xdh9jAPnraLB2m65UpQ6tg'
p696
aS'ptruMuj43De21weY3q-RpA'
p697
aS'PZHO5bdgz26ddon8sV02AQ'
p698
aS'v2X4HfpZA8m7OCL-JRGqyA'
p699
aS'oB1eTd2ZdPgtvgC5llPZIg'
p700
aS'jUCgAb0gmvjtOA25I1bQ8A'
p701
aS'iKxE0GoSbgY8ythwzRSgsQ'
p702
aS'_jbeTDw6XSuvLaR1V_z8jw'
p703
aS'bEGEVhL86L-2d-wSqAWhfw'
p704
aS'paXCE-J2cTEPotmOC2meqQ'
p705
aS'nq31doWpCrr1UwquTXNdmw'
p706
aS'ZNhH5zYE-wCKRhLhAVcjkQ'
p707
aS'AEslNDNlqp6BHAj4VKRVfw'
p708
aS'YA4xUXIVsfepzyneA2sNwg'
p709
aS'x1N-PtwI1Yjf3nZzBGJCSQ'
p710
aS'DerMAlq9JZbqMuD0ZwbaSg'
p711
aS'GaNphMfP8VeEU00b2Sonng'
p712
aS'7srDFwPPnzBaQoPW55Dc8Q'
p713
aS'0SQmfh7ppX3HnYx9SxmReA'
p714
aS'8Paw2C-StKOx7C5nSYNX1A'
p715
aS'GyB_gfPDDwkmalj8zE_kKQ'
p716
aS'eONS7DP6U9BV3lkqGAUbOg'
p717
aS'Nz_AasmpsQ8MLSqhCTRVoA'
p718
aS'EQ4UBZPlLhOGpINRD3oI_g'
p719
aS'IMoQsloWZUCeC3Unw2j8KQ'
p720
aS'i6XMXHR1HnX6EeNMntXDig'
p721
aS'OOCLVeqqMFfSnKa7liv0Kw'
p722
aS'e4eERbHNzNd9LKOXrjMnHg'
p723
aS'IEPw6bhzFzNReXwobrT4xA'
p724
aS'YyYQgZR-6bG0gSZlsM20uA'
p725
aS'7Fk9LIRvalyMkeHNea3u2g'
p726
aS'cB9fdS4INRNyKkgYY6Dkog'
p727
aS'k0WkJrQt7kG9JbGTRG0PNA'
p728
aS'Y6YCdd7RrTXpGFoACkyGuw'
p729
aS'Q5diW79GD0MSJ10j1HCf8Q'
p730
aS'AB7uOYIMVc_TbIcYR8np2Q'
p731
aS'mUVTlJSil_xyjPD6qMx8UA'
p732
aS'DarcQlLpQOqMxi3tsdffNw'
p733
aS'5FzwrpRes4EdkVQrtg_qJQ'
p734
aS'uKSX1n1RoAzGq4bV8GPHVg'
p735
aS'SXc95Gjs9hT2jJObEeYHuw'
p736
aS'Mm1-PdgyC0mC7gFQ30z7Jg'
p737
aS'0wcIW43ZFTeVFmRMvylZxQ'
p738
aS'6IW10FFgrAfdLwpBW_V-_w'
p739
aS'0R5F2Gz3ymot-YNWt_0_cQ'
p740
aS'cN6aBxe2mQvrQlzk26LyRQ'
p741
aS'x0hUCS_TwfnOhKp-ZpB_EQ'
p742
aS'fHrchaRB07DN0Dm-4Bk9dA'
p743
aS'PBcsBfduHaCBVLsgVvAkJQ'
p744
aS'DDnmNTvIIQu2t3WZ2EQx-w'
p745
aS'P1DyzJfy3RCOdT9s9zgNiA'
p746
aS'IpnoWCb5LOwIWwEOCC45VA'
p747
aS'NKIdij-6hJGCGfQJ7BNn6g'
p748
aS'WcGTSRku3mrVK7V9GKq4UQ'
p749
aS'eFfoxuq2XiRlYftEN3YqTA'
p750
aS'zDC9LTbASSTxN-VRn9d7Kg'
p751
aS'ez2kJbLFx8ad0zdPdJSA1Q'
p752
aS'2AAmXgQPOrn_UiVdUG5YiQ'
p753
aS'XI-_Y2XRw03mozGx0Z90Gw'
p754
aS'm14pIWedGiHi9_aWAIXEew'
p755
aS'1ksEqDWneqp8vn1m2zSueg'
p756
aS'g-eZgnBDvSDguF8cUxKCkA'
p757
aS'fiXqY-62WJdVsEVOFQsN4g'
p758
aS'PiA6iGArMkzNGxpqu48NTQ'
p759
aS'y00oZaBgHET4IY0VfOw4SA'
p760
aS'JtXJ8lDWrxkCJba9tUHVjw'
p761
aS'tsu1IvAiMy0RFuYzjz7kiA'
p762
aS'-yYsRoSWS3pQUmiHZXuxnQ'
p763
aS'm8BYrcRsWOD12PXM9uawug'
p764
aS'vU61n6sLLp7ikDI-PbLwjA'
p765
aS'OuaxTQzO3eQ50dHY6-47JA'
p766
aS'fo9wHE1wquRo0FJllBKdQg'
p767
aS'WI2KCnrppZzXr1eTNoLr_w'
p768
aS'WTexcQcmljcivWPUZbc40g'
p769
aS'paF7fjuCWbqg7pjwSWnMkA'
p770
aS'qUEUAGqhkZeq7hwf5-yVGA'
p771
aS'ajf3Myr1PKX9RaLS_Ukc8A'
p772
aS'uvQoMkdnjs5roWgFa2QISQ'
p773
aS'b-rVzh2NtjsqL7JJ_dDf0Q'
p774
aS'ygt9aCJ3X8m3M4H8vU7cSw'
p775
aS'8Jg4S5r79dh0l3rIbpVBcg'
p776
aS'VTVHTulkWlsuQUxBgTsruQ'
p777
aS'i41M_To0DAxuzZIGvU1wyg'
p778
aS'bpdnJhDpayxT1m6feghsAA'
p779
aS'5G_oPzPhlTJ1zMmqywWOUw'
p780
aS'tV97OH1LK00kUcX0Jig-sQ'
p781
aS'jJ95rHRcU57WGwMakbQ4HA'
p782
aS'PNrOTfMmE0CJFV9YwSLzYw'
p783
aS'4fe6cZUW3P89Vz0WJQs05g'
p784
aS'EdPa3d82Dq_za2Wf7Dtysw'
p785
aS'WtzcsOidUETacPTDq6BuHA'
p786
aS'zK3rCrFE_cgXCr9mDHBdXw'
p787
aS'83RLRT-MsvXQJrmIanqVYA'
p788
aS'6P76zWJBtahmJa0yqd9j4A'
p789
aS'tSA5mnkrjGkRn418hCf3CQ'
p790
aS'lc97YhLugnPdSCOhTLCgnQ'
p791
aS'FCIYOCHTuEcuPqJFxg5e_Q'
p792
aS'V5QdxePG-pGPXVPHSLLM9A'
p793
aS's6cDGkLyVRC1SAGDC-_sog'
p794
aS'rI_9QfOPA0CLuj7jB35Gxg'
p795
aS'y0weNFCIJF9bTgBbFST86A'
p796
aS'e2Q2hKNMLfGC-YDygh6EVg'
p797
aS'Vm9GQUptdZmBM9R7tZ9_Tg'
p798
aS'QlF7GnyJ-MdM7u4WArz6wg'
p799
aS'xO-Z-VIGbTZMK0EG23IxNQ'
p800
aS'WjH0BFZhjg_bGVLbUs8ZqA'
p801
aS'w4gNY0SP1Ejmj49ouA-yIw'
p802
aS'LmVcYycG_VI3S6RNgqiriw'
p803
aS'nRLsX5dEmYBcjhX2720y8A'
p804
aS'Qy-pPHX8KbXNOD_TgPP8TA'
p805
aS'8z6So-uKgZf4a4LOf3pPKg'
p806
aS'h5AWTkbYzRk-k5LS6rQtHQ'
p807
aS'_0DvMQAs9KvA58Pf3Z4ltg'
p808
aS'ZqNYje_T-xDDog-Wp86ieA'
p809
aS'Xv2MKRyZqVrFqwxNr84_7g'
p810
aS'10VZ8KEshqD5twjcmZ-eaw'
p811
aS'KT_r7qwU8sSfcR31zETGkg'
p812
aS'-8ESeBPSgUI736sd9ajn6Q'
p813
aS'0K35eGvzVRZEirNo5v_WfA'
p814
aS'zr6Ic3XVUYSKzoJoXjAz-g'
p815
aS'kojx6dyTDXTarNKmA_ZGOA'
p816
aS'hbb62P2U2l0QdC9S6sfSsA'
p817
aS'V23hvRIXCoCq3CNhgTweTQ'
p818
aS'Qfu7CwUW3-7MwKBtwJIJaQ'
p819
aS'nkWrdJuygP7OnJddJAe1_Q'
p820
aS'VZ3rSecjBAKksv2sLfCuVQ'
p821
aS'Je8QTq9npdNeQLEMEgw8Zg'
p822
aS'VdoqSzXlB3rldeW_BIag0w'
p823
aS'SgrTBaqSqaQVFKgYGseIPw'
p824
aS'UJnL0GygZpd-uUxeOUgPVQ'
p825
aS'V1w0yrpYth-czR_4bEuXjQ'
p826
aS'o9z6CnjOr-_WHL8eIsCFQQ'
p827
aS'sS0bWeEwC04bDP-IvPQqrw'
p828
aS'fVVpTBLOHZDH4AIACjO4kg'
p829
aS'SK5Uk4kXtBggVw55BURdHw'
p830
aS'4t2DtOOtehQx5vM9qL2RqQ'
p831
aS'ADJIoHN3uLx-JalYl3r3Dw'
p832
aS'xnE4y7DanveUY_fPc0LxlQ'
p833
aS'_izZ_euPbjphpiobMkLzSw'
p834
aS'LM9d5wQcVqh97g7qpCQ88A'
p835
aS'CBGwHtdnBUfRj0Ow_gH9wA'
p836
aS'97Zr3Mxy_dY9cZaSG3FT-w'
p837
aS'axNlxFkTSFqivM_k36k0BA'
p838
aS'863nEWkPZ7uD-ZRTmmJokw'
p839
aS'e48Wa4YqFaMjMmN9iZ2G5Q'
p840
aS'1zK6sQSyZlPJpzefjA-GHg'
p841
aS'u0zjW7rluJgUeQTnaZnkJQ'
p842
aS'Djaulpvu3-SsFxxfcHE5cw'
p843
aS'n6PME_bE7LnFhYKRx7UhJA'
p844
aS'kdTh7wzRp8GVNZmJDrtmKw'
p845
aS'XPNrGeWsEUmglTSq619now'
p846
aS'LgWgQI_jtr22mzh6NKCQ8w'
p847
aS'jocqDjHCx0n4AjEJ2v6XYw'
p848
aS'OzHHaov32R4WgJswKRuDoA'
p849
aS'XdMG1S6rviOa_bPm1-SKDg'
p850
aS'-nmr-3l0EmQaZAGEoXgk4w'
p851
aS'b8Bkm7-a1FNRjZGB-szEzg'
p852
aS'R5TyRxY46mrSKU3-42-Orw'
p853
aS'hxw-JWXKkYOSjZP0iZlj7g'
p854
aS'QhkP0_5r5tMaGzO4Zpfvtw'
p855
aS'OtdMMd4taGagxkU88wmEFA'
p856
aS'vujjKuD4Vls4xKLe5MJ63Q'
p857
aS'avPNEqlXgyBvTXjb-ujQFA'
p858
aS'of87_oEtDI5t92YQfhwruA'
p859
aS'9quEu_e1r36ck3I-TuyFMQ'
p860
aS'uTW9SVXqxgjbnCTlEf9ONw'
p861
aS'FPYyblw_Q5-jRWThsBwC8w'
p862
aS'YldXB1hRpnE1CWLF3mvgpQ'
p863
aS'69t2S1u7Rf6qM_c14b42xQ'
p864
aS'NBvrN_ZDpmBCsPI1qLj1Qw'
p865
aS'v-d8Fvd77bOLCysXCb21Cw'
p866
aS'_iPQaWVbzR4b_t5tJwirPw'
p867
aS'xI0UZH734lJtm39DbLf-Bw'
p868
aS'GTVneiUeIyRL8Wa_WmEQ0g'
p869
aS'CLJ0Bb2AEAOSlQeBk-yqyQ'
p870
aS'k0qo_gk1rB-ImG9kUZTRtw'
p871
aS'GQoGAP9ZrvE6raU0QfTntw'
p872
aS'AFx48YCp7n7dn-AXp71zAw'
p873
aS'xYjlf3pudcIn7gX9p6idVg'
p874
aS'hnRqJND9awRC80aRwfQ1hg'
p875
aS'z3cvGSfHereAsnSrHctzTg'
p876
aS'Z7XN0NQH-5uERDzWt7UY6w'
p877
aS'4JOv7EnnfZ8fD3JunQQpyg'
p878
aS'-Wlx9n3nFB0Je9Dk9-LQbA'
p879
aS'Edj0quZE5k1WcAtf883j6w'
p880
aS'DttDhELFKdueDqFp45idHA'
p881
aS'FCJHirFzEtj4M1VcuaKieg'
p882
aS'zXg2O_QnpHQVD7e1azAu_w'
p883
aS'zIimLCCoMBd7p2VtBkLW6w'
p884
aS'L-GfuOmn9mv55571uXvf2A'
p885
aS'OCLv7SxKX7a46VIdMFpy8A'
p886
aS'IwhkOh4fPsiU7TThIsz6Og'
p887
aS'ZD8xAsXsj8FRunJOP4fSrQ'
p888
aS'd-EaGpwrCuJ_-Ubme9rC7A'
p889
aS'M-vP3EVx__WpWspmj8IDcg'
p890
aS'mISTPrrYe7VZDgNGT2HOZw'
p891
aS'lDgJ7QwsGrU1SOsIv5NxIQ'
p892
aS'rTWh5hZ3QjQ0qGlvYCcRdw'
p893
aS'X8tfJzFU-pNxWnZk1la03Q'
p894
aS'13VZKXF7bBuLsLDh_r3g0w'
p895
aS'qrapwnls-3IMg-iaXhkQKw'
p896
aS'axGWZgwzqpL69EznZBH_rg'
p897
aS'Kpl6cUmrYMczTDY_2RnctA'
p898
aS'KyeJIafrLDV8FF_-H9MmsQ'
p899
aS'dyT9csdGdFnonJakI18Kyw'
p900
aS'NJTIb6bro3gmfo7Gp6rDLg'
p901
aS'62IgG9jZKJG44AypLI-nuw'
p902
aS'f22fU0c1dUJVznWhzTuzLA'
p903
aS'42ElKM0t-C81jzAJ7rJJ-A'
p904
aS'xSaeulDx3iebtWmuRjcoyw'
p905
aS'UWGTkUrXpTFTh3cjH5deIg'
p906
aS'uO9jlgjrV3_Td4hj_WfDSg'
p907
aS'dbh72sNyNeHUgJqQye9Vbg'
p908
aS'zxqvU415r_RtZRKDtdbIKQ'
p909
aS'FIlsXTZADJVjCmJed8DAxw'
p910
aS'e8kRfAKXM_1qj9LMgp0s2w'
p911
aS'XiTZIlMsKUiGH0lNxGJG3g'
p912
aS'CEOXKD0S5_Yr9gX9zSSrsw'
p913
aS'2e1jzfiHFGCRpV66gYNVbA'
p914
aS'0DeBHTh15YSFLX9JXO6grg'
p915
aS'5_tsOGJQDDl9iKOr8K79Rw'
p916
aS'UoF1kBmJAo76REBNbc34AA'
p917
aS'OyehKmT9fPoin5jzfJZ0Fg'
p918
aS'2Mw-ppFgspTQd8pzq5ru7g'
p919
aS'ogYihRA-_c-Z_PyJfS7E0A'
p920
aS'iTK8SMrJ4n9T29w_0tIFRQ'
p921
aS'oYLfNKc6Q_XKG9ixiMiumQ'
p922
aS'A7A97vyr5t7e8zrkGCKndw'
p923
aS'0MoKiXqYSvyJu_BFugwFqg'
p924
aS'9-cRrGH5WmZKQ_O6LtfSbw'
p925
aS'cnhUYYiRM0rAKVSZezlEVQ'
p926
aS'ygpyL_-W5-AwYqdzT8sP9Q'
p927
aS'xoSmdmxrkABwdATs1RZL2g'
p928
aS'Szc6Wvt1i8VqSAOb2-7BAQ'
p929
aS'PR_y8RHrLugYxzOiNuPdsQ'
p930
aS'P-eFQxNVASBkDLHn7M458Q'
p931
aS'5UH0FGpE2Ge3FkUlS8MUMg'
p932
aS'_TxHpq7MoQdhqQaKrkAf4A'
p933
aS'3m7GB5z3mm9Cbb7i9MnDkg'
p934
aS'huxYC5ZvUwJdJE3tfhnpIQ'
p935
aS'MApE34gxwHgl449xcEtaeA'
p936
aS'K13dEvg4uimGQ1OcE5vGZA'
p937
aS'Rs6kOdxCB6Bdox7VsFTKzQ'
p938
aS'AzYy17rSt1tNtyGhGumkHw'
p939
aS'Jlih7uC9Bmq8vvtcypSq1A'
p940
aS'loj-LzdcfSlCWUXRQEN7iA'
p941
aS'e5kc0CQ4R-PCCDgb274gSg'
p942
aS'r-pc0VgtiTuctH3kUve00Q'
p943
aS'hnwogfGuMPwTh7Lbg_zkUw'
p944
aS'ODWAuDtCFH0r3UKTmvk-tg'
p945
aS'FB02CnRWILi_A116tMgpiA'
p946
aS'oZWCQYTUNcb4DZtAb0w4zw'
p947
aS'16olLTJnCA0Q3B_oft0RvQ'
p948
aS'N5mngndCAvTo3l8UxNGBjw'
p949
aS'KsHh-aLrUQrAN1hK5tTwgw'
p950
aS'eK6KGMKqU_4nB9RdayZD7Q'
p951
aS'9Mg5BoR-u0zPfcInLUcpaA'
p952
aS'90GJDqPDCOO6FBcnYXEQJg'
p953
aS'McyB48SVPMPLZn5GTF34FA'
p954
aS'066DMYkFeK3ccv_94ijzfw'
p955
aS'rO1BrNjNKcbPlyAdhjGTiw'
p956
aS'7fEuPnwHDdt0dYXiBPONFg'
p957
aS'MHy50GRrcXxMORpF_-kNCA'
p958
aS'MY0_6BAzQCu4sqXqwNEFfg'
p959
aS'M_Aur61hhpgId1mUzFZByw'
p960
aS'dYZ9YiA1JYlFoul-yorXSQ'
p961
aS'FrPm9l_CmSwBe8TCEiQnUg'
p962
aS'0EsThEHD8nqv4qdsnVeGyQ'
p963
aS'vNOLPRovcpO0B2Iq1oSe6g'
p964
aS'nXKwzVKJCtIGd4HxXgjdnQ'
p965
aS'Xu1eZYzK2wzlfjhySd6yAw'
p966
aS'Y42CggGm108rF7e6Wx-4Qg'
p967
aS'vNsxy_DkMWr8tzCEGR7W8g'
p968
aS'1iBYi4hrT98opr6TIdGxdQ'
p969
aS'NPEKpj1aBRIDujCPIJ0Utg'
p970
aS'oWb5JjxoPaFSmpGwJ3-Ntg'
p971
aS'zht8__JJoxkozBhf_vuKYg'
p972
aS'1OofU2yrTZMes1iJUo5pcA'
p973
aS's0klhdxcAab0yEWw2Uuimw'
p974
aS'2nd4_b7-DFjI921Mtt7GrA'
p975
aS'RalonfLv1B24rKlxu2QbdQ'
p976
aS'uNEyBobEVrXJG6rbS00QeQ'
p977
aS'lUoItyb_7x4vbhnm3ECjjA'
p978
aS'jdMZwzgn6A1_1gP2Wz2uwg'
p979
aS'-zjZJKEY5f3do29GVcA1Qw'
p980
aS'W_eIRGtOlGzZDrWD2xs-Qg'
p981
aS'1EznjRSmTFjPeY80ybyyqA'
p982
aS'YtC9FmqeavUXHLeIQh7keA'
p983
aS'gWQlTK3o29rZGlw2YLUnhA'
p984
aS'C_KNnklWpDle6mioOPwTJw'
p985
aS'A-8Q15fZHKGn3dLjazNwHw'
p986
aS'bSrl0gA6QS4oBcfTlQEjRw'
p987
aS'JHcfeatVT6SnTS2pqteQKg'
p988
aS'rbYgGdjGneC40e8w9IYP_w'
p989
aS'lPcNteaFK8yaLRQQMcE-sA'
p990
aS'HGfK8WQsE_5Pj0l3-XvjBQ'
p991
aS'eED0rOLOWzq-kI8Rco87Xg'
p992
aS'nH4CEJwrRXPxhfdL2pz3MA'
p993
aS'9KeOc7LjHxgcDybHmzd0_A'
p994
aS'IKDPP8onhaxbM12drBWCKQ'
p995
aS'rbeBreN9KOWipTUQsmiQ9g'
p996
aS'4XgHf9yUCJJTqQ5r4_TCsg'
p997
aS'oI2OtoTnYbsUCreS07tP_A'
p998
aS'0TaGsKAXOU4iCFZfW-YUow'
p999
aS'n-Q7d10K0h6PyNewmiHLyg'
p1000
aS'ALiZ9e3GXt9eVwYcRkNeOQ'
p1001
aS'KKQ5hirwBMKOyLR5sm8u9Q'
p1002
aS'he3SGzMnDcJh0Vn4o_akYg'
p1003
aS'mcgtZvjjCXLY-Dt7V_XZ6g'
p1004
aS'VK9AdK8hjxIWU3C2W9_k0w'
p1005
aS'ClUcBnI386DS7GIjwgenvw'
p1006
aS'3smfGoSl53AKfpK2R0zNug'
p1007
aS'SaLjX7w3OdHt94cHGQeF8w'
p1008
aS'BxHjpaA2PQlhd-mB54vvTA'
p1009
aS'Sh5aUk9HHBwpt_SMI9PMcw'
p1010
aS'4JbQSLiRKQudjDn9fYyEiw'
p1011
aS'g5e_c53sGt5Z85uGyC4WsQ'
p1012
aS'RGDyf8-PyzyS9Lzs9bkvgA'
p1013
aS'dikctAGjqkRpjHusLnGMQA'
p1014
aS'VY_tvNUCCXGXQeSvJl757Q'
p1015
aS'8RHUxLDbUkne35AfbyJnAA'
p1016
aS'3DIG0gD6rL7AmukW3cdeKg'
p1017
aS'hfpt_mEBm1ZLI2zrqfXwaA'
p1018
aS'gcIskB6HgDAoJd8v5mbnnQ'
p1019
aS'Tw2lwIojYdbfNsca6qAP5w'
p1020
aS'MGX9q4RRU32RlnOn4XEKeA'
p1021
aS'SZRqwvFNaml23d79-kMC8A'
p1022
aS'MkwEMQyERUbyrPR4k_jS6A'
p1023
aS'x7M9x4AqyC-oYk0rajrOWw'
p1024
aS'XbVqzUHS3c9FhG4lI13c3Q'
p1025
aS'dQQ4wVKoGZGpqo_SAxz_NQ'
p1026
aS'dbSYJm4fW4LimtmvRgPfBg'
p1027
aS'AhVAj8F7jjMJcqKD30XwMw'
p1028
aS'SgSv46U_dBf7qbPZy6h0aw'
p1029
aS'HiEk8XnwxaIJsoNKhPZ6Kg'
p1030
aS'PFPxHykuuKzgUbgI4ce9sQ'
p1031
aS'Zk-uJtv5vLpdNV-7rsuDKw'
p1032
aS'HBitDS-rPJAqKId2ela2Pw'
p1033
aS'YOdLHL9FlEv_l8gE9iH9oQ'
p1034
aS'cYhtaMEEumE59uUOCUaKrw'
p1035
aS'jcBBaRnalUmCNTR8RtYadA'
p1036
aS'6cPsMN1wTvHExrg7Sl0l1g'
p1037
aS'kUiX174Ai0KtDRR7S49R-Q'
p1038
aS'mn1LFFcQwEpir38_mPYH_g'
p1039
aS'ftNAvqB60nsMbs1Cr0moXw'
p1040
aS'E8uHpUKu1eRx4V5gug1TpA'
p1041
aS'TbVPye1S8UZzLPy0E2qN_g'
p1042
aS'DnA5Ec7DOvaaCxmnLx2iYw'
p1043
aS'L5aErVDXrsVpShvy1k0HsQ'
p1044
aS'XdNuJo7kuspvP6qa_SVQEA'
p1045
aS'wy_R4crNr1BH0CP87y9UHQ'
p1046
aS'XLm6u1RZ7540tiFmOAoH4g'
p1047
aS'EoQwLmT875Saly6im_ALTA'
p1048
aS'evdDnCfBUhF-E7undvPNQQ'
p1049
aS'AhjSzNFGdJZG5J0oF2Voag'
p1050
aS'IoFggnoj1P4EcmNEP2K6Ng'
p1051
aS'C1Ke_yh42mOFNac59UGYOg'
p1052
aS'A6OstDz-flrI84-EW8aILg'
p1053
aS'cCBh06fPGG_pZR6heIe6WA'
p1054
aS'507GX11jtCsVYlzaur05_w'
p1055
aS'co8rv2zfOhMXc_TlEI9VrA'
p1056
aS'8tx1C_5ZBOBySrWNOsVb6w'
p1057
aS'nt6t2rHbgkIqHXnf0d4hcw'
p1058
aS'43NQ-q543lb1VTstqLZIqg'
p1059
aS'Wd5JG4sYZjNDGmHiPKGKVg'
p1060
aS'Y3nETidvklwdqNeGRzdGNw'
p1061
aS'M1cWjubhVj8QQJZdA5AAEg'
p1062
aS'hUvLxFBm2e2rWyUfqwvl-A'
p1063
aS'rRym8PUMN_dN4EXM54nOsQ'
p1064
aS'h_t26CAo7r6JqmtEchLuNA'
p1065
aS'TtdQtqjvN_K4449boXaU1A'
p1066
aS'oMnb6CYYgj8AKlx-gPuUJw'
p1067
aS'OML8Pf-nPMp0CCBTx66UMQ'
p1068
aS'E0sGLFpYJoanfCXUAbHhMw'
p1069
aS'HewFMHr2HWfxmjCrflnKrw'
p1070
aS'_HTE4pOKeJC7kcxiCF9vTA'
p1071
aS'LEHLUGVprLltl9lhQpxczQ'
p1072
aS'-f5EhKQb7jPtDl1eYDwV0w'
p1073
aS'Z8ZyV5JeZ50-6v38wOuWMw'
p1074
aS'lvK-nITqmTOB7kVTl9WNnQ'
p1075
aS'WAqACt7FfSFcJs-gqysIlQ'
p1076
aS'9qHuLU9jUJd3IGPpEn7Ejw'
p1077
aS'mQ6_slsCd8-c8WFNtESnqw'
p1078
aS'KUyz0Qe60tov7dkfnzl19w'
p1079
aS'vO-qXdgvzoeLoSgRtOCwlA'
p1080
aS'3lW28uMbQVld9uD-WaC9wA'
p1081
aS'eigBAPMSVtE8a5NPfw5GTg'
p1082
aS'4eetDKIRjOCXZtAPI-qCxA'
p1083
aS'co_6LeIptstZXrYlTrvQyw'
p1084
aS'Bdwv20CSRQ6hGlkQtn67xw'
p1085
aS'D--QJ1Qtk5B82i_OrcgSPA'
p1086
aS'zpKmFI47BWUT-dUlTDSVug'
p1087
aS'cQZcWeIDKEF-7nWU3gJMUw'
p1088
aS'B2wD8TifjbdrjwN3_vboXA'
p1089
aS'hkURDp7H7IySRuilVVuSjw'
p1090
aS'H0ZQsk1WvpIVKRE8R9D0dA'
p1091
aS'_YswYrpv6YdO3R3CP8R8oQ'
p1092
aS'0rsqPxFdZuOXYmZz9nDP1g'
p1093
aS'SOvF2IM9LwgBYi1uGnUwrQ'
p1094
aS'h1VnS8Huv5mMAiRAaUtUSw'
p1095
aS'68euKezXqyvsE49cIGdL2A'
p1096
aS'yZ-qb1oJzlTXG_b1EPX4TA'
p1097
aS'b93AyfRDgrQ8v2o6LCdy5A'
p1098
aS'FCTzrC7lxa__1rnkDAgVXg'
p1099
aS'G_2CWsU7GYwhNqptrLXUBg'
p1100
aS'I4uDkxbTLt5l1JFkcG1e7g'
p1101
aS'OMaIbjoKlRdplpoHhBtWbg'
p1102
aS'rTyDzuqkOEW7u8y8CjW9UQ'
p1103
aS'o0W63qXx172aCiGf-CCWyA'
p1104
aS'0nyaKW_6QHSJ74OVnDmyhA'
p1105
aS'XXdXgsLzigS4afx8lv9MRw'
p1106
aS'CycfCC0OLvTjG3Eks8D1og'
p1107
aS'28rwOFllr-sJs3UQKkx1Bg'
p1108
aS'05aRozN6msYyyJIh8UEahQ'
p1109
aS'PzOqRohWw7F7YEPBz6AubA'
p1110
aS'ANeui7NJRkGtrOshX0610w'
p1111
aS'YDeM8-M4GwxyymCoV7Y-Tg'
p1112
aS'Shn1EcWqqjRlDp-92D43gA'
p1113
aS'gFJtzwGmDTABRwL2F8GsSw'
p1114
aS'lhpk_CUuo_ZBqTP7oQ2vBA'
p1115
aS'jIoO4HqSP4TeDizuPhpG5A'
p1116
aS'NlxGjnUDzpkoPHSG8LGAXg'
p1117
aS'H-99nG_KfynWPXh84TKj8A'
p1118
aS'ARW0xawPIbykL-1AFs26PQ'
p1119
aS'gaX1rGPdv9eyPra0cYsYZA'
p1120
aS'KwGQqUCpHHhOhVqyOL2QTA'
p1121
aS'9wj2RkmuCHLG1pxy7-JXFA'
p1122
aS'udU3vTgNvUqjeFlyjmze9g'
p1123
aS'tqjmY3E93kbp62PQwRfTuQ'
p1124
aS'L8wbRD9zG4GFxgW0KLoIlg'
p1125
aS'OZ8zJkZ9QQV89NkXnfQ8bQ'
p1126
aS'xRvLAnZ9v0YmUJXGnhspAg'
p1127
aS'rK9wysMZ3nh6b6dxiG-l_Q'
p1128
aS'mOeiMQ2lhrXgCRmxO_sgNQ'
p1129
aS'A1HFHiRzhuItPEaKZqPpbQ'
p1130
aS'L54v4fWVdYyxwK8QhjTx2w'
p1131
aS'tfxveeZkRB1N5o23jLrSxg'
p1132
aS'exODno12y5GRj0DRzob2Eg'
p1133
aS'aPO-U1R_nLowOhrSifxKRQ'
p1134
aS'dZpCzo4cbwLITa1aSfX-oQ'
p1135
aS'l6ymDZz4ZJZGGwBNVUzfYA'
p1136
aS'G51m9_lx90bB9k0wHdohGg'
p1137
aS'6GnJUbiq73xm24F7SixI9g'
p1138
aS'dv5gSsbRtTatsBRcKLq4Kg'
p1139
aS'n8xZIU1PZz3Um0QhJnCfcw'
p1140
aS'A06Ct4ZTa7QHVhd-JJU3rA'
p1141
aS'lL0qX5Qz9zhhW4fypTFlvQ'
p1142
aS'gBEaBla0r6OEILgGExF7Fw'
p1143
aS'JI5aC9sYX57qTl_rFVfldg'
p1144
aS'0Z5ZdHaqmE1Iu8aTgp2qXg'
p1145
aS's6zzKc7UvwDRxn-BFlhiTg'
p1146
aS'p0bdt66W3xq3llBQ1u2j0w'
p1147
aS'9QvuimC30Cj5LI1kK_mn9g'
p1148
aS'iIEG7t192wCaZXPlGJApug'
p1149
aS'b9puezPqx2idmNodTtiraA'
p1150
aS'54aw2tX7LQmxiU2DOZxdUA'
p1151
aS'WYf4exS-QvyaqUyn9_-5Bg'
p1152
aS'QO5ojtq9u2so-S_tYmeHsA'
p1153
aS'S9GjxjSeAaSUaQYfdlR7jg'
p1154
aS'UqRbXF91yYJVnqYhvmn8Qw'
p1155
aS'UiW6G9-g83vl8SdIll7zfA'
p1156
aS'lrxoQH8u2X-XpQ38PLAgTQ'
p1157
aS'CVBYF1AMlrZbScRXX8d6XQ'
p1158
aS'DVdrpdyIPinKBmraRjlPjw'
p1159
aS'UOA5soaz7A1MLN7LJaDuYw'
p1160
aS'dAiWZeMLRM9e5aFs2ceUbg'
p1161
aS'raUkcnMB-0BTuNw8pAmV3g'
p1162
aS'og7Xi8mwAvhXqDqtWqtt0w'
p1163
aS'UcEmk-XH3bE_L6M7Zk4vQA'
p1164
aS'pmdVZY-jd83EGct82Q2e0g'
p1165
aS'HghAgkxoEpUNZNQbAY485A'
p1166
aS'n4mfUCDXHsg0GH50HzJpug'
p1167
aS'BFBDSPDUhF5U_d1bKaxWiw'
p1168
aS'hye6THbaFXpN-Xx6_WSdPw'
p1169
aS'3oJ57bPl-8lMnHB8bYQpZA'
p1170
aS'WflEF3597OItD39ygq9C8A'
p1171
aS'CV-HN_ZoT1vEK10wE7988g'
p1172
aS'KtsxJfAcDoNjhmTZeZtFmw'
p1173
aS'nW_1gn19lMnS9IF1KlZ-aA'
p1174
aS'4MB-s1xpnH8Cp-MrqfRwmw'
p1175
aS'jhI4kxnLhK3olQ5rfCyvPQ'
p1176
aS'zkFP1CIt4MNLNkQC4Vhg3A'
p1177
aS'893oDNVA_lTTPoW_R60OYQ'
p1178
aS'PpBig3Nf7kMf5aC0HmOX1A'
p1179
aS'D-pqRUo_W-usuD6V-xBVlQ'
p1180
aS'AKjg0PYkROfiowIG2iv0Jw'
p1181
aS'FkhbikXhMDk1VVAMw3FAHQ'
p1182
aS'pw80n0Tcq_PQSpVMmzfgeA'
p1183
aS'FsRAzLD7ipg5iez7kY1b4g'
p1184
aS'9RjmK5CSp4LlKJrpRoCEWg'
p1185
aS'GqtuHKzQ1ceOHj2wUKBByg'
p1186
aS'gdyY-miKiaN2_PpDpdui-g'
p1187
aS'ELteSrWsLsF0S24gE3VDvw'
p1188
aS'St3jS0PnF1lulH1ggA4Jgw'
p1189
aS'7k5StYQ5770p6tPHadj-TQ'
p1190
aS'0vYp6ITH7FsBtlpFcWTdRA'
p1191
aS'pyg572O0kEb44lXlW7OLyA'
p1192
aS'mLH4DEWVcYVFHwsVNyb-uw'
p1193
aS'5SYBY1QV6PIbpfsHWUVuqQ'
p1194
aS'N8bcq59xt-SRAl9wBBgyDg'
p1195
aS'VKh4w5nJ86OVzxqL0UbYuQ'
p1196
aS'ABDl4FnMRLeSUneGh5nDLw'
p1197
aS'glXWrmXLXGrbQJzgMPygjg'
p1198
aS'b5F2WCGUnwfh7z9N2AZ-nw'
p1199
aS'K3ZXgrSuOKjbF7ksEQY6TA'
p1200
aS'lAfk-yCZF1LDL14CRsVq2Q'
p1201
aS'aPdDcFXPsWVxBhaXuZcDpw'
p1202
aS'wRWakw2wXmMEAe9FW9w1Pg'
p1203
aS'NQhPkGeHiljeg7tXPTHJeA'
p1204
aS'XZHlTIIuFkkv_zJzShV34g'
p1205
aS'8aMvQMmyi84eRNEl92ggTg'
p1206
aS'YIcbTOdVuJQ19J2yfzePiw'
p1207
aS'1F-pelV0fTduYV_vCrvjLA'
p1208
aS'mqQ4XggG3KjRHJNhR-iiQg'
p1209
aS'Q6Sa3-Mkp9mLvDZ6Ei_0MA'
p1210
aS'VgtEm_L23SNZEsyNMKwhog'
p1211
aS'T_O-Nqgz2FVI6EEleA8kbw'
p1212
aS'wSg83Kuhdo71JpRPJ5zOLg'
p1213
aS'5XXfyuHKAcQOfYZM__14qA'
p1214
aS'tr4L9VWmPGZtdBD-L2Pofw'
p1215
aS'LbBxrQJl-ny02-eCM1LYNg'
p1216
aS'OXwKBaV74IM_VduC5OWV1g'
p1217
aS'GlfwqH2dY3MKxrRirKeueg'
p1218
aS'C0vHeuHvd8H-9pJ1Qsb48Q'
p1219
aS'LDJhwZN14AZOJyHjg2lkRw'
p1220
aS'DdVbzqR0z3NisbPupv4IJw'
p1221
aS'iNT6pcUugoXsDlZgRTyhtw'
p1222
aS'VIDkpkW0Ncgld16f2nfUpA'
p1223
aS'N_6bV3c3JagKW7sD3X9ldA'
p1224
aS'VlHp9AFc9repIF6braYCCg'
p1225
aS'giZS_d2r7hMyYXCjCpkZTg'
p1226
aS'UHYxPlfmPLbEftz3Ntnfcg'
p1227
aS'awT0OaO_dX9zGJly6wGFaw'
p1228
aS'nzfTy-pnGeEgQdRW2CUriA'
p1229
aS'ccC2ecxVEOF4t_kKce6f8Q'
p1230
aS'EwRpc3Jt9LvTXhIcsCPUIg'
p1231
aS'DmkTDze8ruJr6o2f5GAvJA'
p1232
aS'Rm3cgenR911O0IwXn10W1w'
p1233
aS'7AX9fPx7s2c59ckjFojT8g'
p1234
aS'LX95oOJqdGP27R2BN-4xLg'
p1235
aS'XfhFVbrcguL2ifZnfOzmXQ'
p1236
aS'ozWBsvbeM2LSPsRDsYKr1Q'
p1237
aS'q1nDSpmV-FdTBNj6UuZvTg'
p1238
aS'T2K-uBbU56bzGUuxs7ws5A'
p1239
aS'67gi179fNUkU5sApNTcrMg'
p1240
aS'YzfzNn1YdBeM_3vGPyWKWQ'
p1241
aS'xRfIzrYkLDKKXvLMhYzPxA'
p1242
aS'Zh_y9AmSfWZpR2JB9wye-A'
p1243
aS'W1XSrZgjyHuNYwqckvAQFg'
p1244
aS'lwgF3r7buDEwoDGcQsW8UQ'
p1245
aS'L6PZFIpLARNTiDr5Owmc9Q'
p1246
aS'KXMfiG_2_LALAaGzxt1YbA'
p1247
aS'kNPCjWQ6KY0Jk0gdNXjZ9A'
p1248
aS'3JUgms5L35CTGF_XoX7JIQ'
p1249
aS'EskSZI57odTn9wqyNcblmQ'
p1250
aS'ibD43JSJzGXh7tI_0l-7TA'
p1251
aS'o6K1dLoVm6g9ThxQTd15hw'
p1252
aS's17GoK2WVzYiICdgKVfl7A'
p1253
aS'AVUpq52fSE9q3v9tO-i_3g'
p1254
aS'3mTB-FvW_baE2MKAPfiXgQ'
p1255
aS'msPLKyiiqJYO3RPlj1ITkQ'
p1256
aS'8aKa7fxIq8WNojvulLqChw'
p1257
aS'eOr2Kpr-LtDst2IpiAK2Dg'
p1258
aS'_BhzcKojv1gjdRINe3Gkig'
p1259
aS'_qwRTOB9oJRSQRN1lv59yg'
p1260
aS'0vFCASHpp2VBeTuVus4MOg'
p1261
aS'voHJIbWq-lRjWpv1hlSWig'
p1262
aS'd4-PiJfqs-_ChKyWuoa0_Q'
p1263
aS'KcJz_9ETyKgvVhw7GEgaAQ'
p1264
aS'TMpoc-zglldsWNCiJdJpGw'
p1265
aS'SbieCdRBz33V_Hl0sU8HFg'
p1266
aS'0nT6cj3YBJIJSwHL4mKlJw'
p1267
aS'cPIi_5tWZw04DmtyUBcFlg'
p1268
aS'e0wJd1deF4Wl-etBC7nBgQ'
p1269
aS'jwWyx8gEIhUNzBzyDzWjmQ'
p1270
aS'9em_vfSjwcPqQgU8Zj-hzA'
p1271
aS'PXo9zC_oaE4pd96OHdTLIA'
p1272
aS'-UnYs8XvV1M983xZoREdng'
p1273
aS'rZrqA3BJx7bxYMSybosU6g'
p1274
aS'I2Cy_FA42m8LF700SUPb1w'
p1275
aS'_Cpi5N__9kqaNTXJSmWj8w'
p1276
aS'bOEoaZMdcELET4oAhOF2xA'
p1277
aS'ZbJPTGGBzSsmlSos_qS54A'
p1278
aS'qgXhs-oY900b-cqY1NIcOw'
p1279
aS'Zruvunhqw7cuyuoe7g09Gw'
p1280
aS'EbZ9NzPyGZ82jGDFXJhCRQ'
p1281
aS'8M-kD2tuE0-k6uEr_gdW9w'
p1282
aS'N9o1CWJ04_9SxLMxq4nnUw'
p1283
aS'BNTw6sX6fDWe-pmyY1FeDA'
p1284
aS'-WZIxGXJHMGidZXRhKxP3w'
p1285
aS'2a4wMeWkUcS2Qlx47_iQ-Q'
p1286
aS'kafV047FcTiRsQfk7wRAbg'
p1287
aS'-Vy3rqieuSkEb50q73rQaQ'
p1288
aS'Qo05fV2xk3_CAd8WdGbz9Q'
p1289
aS'ckZVnb6gF3PPVWkoVhAiEw'
p1290
aS'DYIB5861KIUfH5soVkP1Lg'
p1291
aS'_21chn7W8d__ZqFY8ulCCQ'
p1292
aS'xI6_E9ERSDEmgMYw1TeSrw'
p1293
aS'GfqfhNxrd97XHpXSl1886Q'
p1294
aS'OPKUjv6D5G46Lh2BHP20fA'
p1295
aS'_giW4QHD5SsID0dSu8S7OQ'
p1296
aS'G1HjLLZNBwQ7xQsA7o11Vg'
p1297
aS'S1DLaZiz1-EQjrJ-3SzYGQ'
p1298
aS'HfWkdqxegjiGEXzI8j7Wwg'
p1299
aS'ntJAKLAq0cXzzdFgPoo0Iw'
p1300
aS'WoJrHOtrQ5R4jx80GwlnxA'
p1301
aS'XguGFMUSEMz4wx_2G-otyA'
p1302
aS'9i8cBclfNEerRhX4xdbQlQ'
p1303
aS'9BPYwkcrItZgnI9V0Cz7DQ'
p1304
aS'hy8Spqp0WdU2ivT8Ln9Fug'
p1305
aS'2cUtHjzt7UveeVqf_r9k4w'
p1306
aS'Uj892z9R-BpyqoXKou8MUw'
p1307
aS'ohSrr1k5N7WFeQtsXQ3l2A'
p1308
aS'oUGFBA0QyzdG8JqLytPIiA'
p1309
aS'LEXREACZK12nWLbYkyI7rA'
p1310
aS'laHph41d1nMBhCJJ9Kl8gA'
p1311
aS'B4tFDUC7yPjQlwI1Gtj8qg'
p1312
aS'9T7eOkHOjWfE21KxgPxo3Q'
p1313
aS'H9E-rLjWe3nBiYTEs-L-1g'
p1314
aS't6lvhOMRI0_AJrEqA7cd3g'
p1315
aS'eZ__lE100vbxjg2iih39OA'
p1316
aS'K-VestRPCsguRnPMtKDEsA'
p1317
aS'zyCrtvCPdSZDhUrH86vbeA'
p1318
aS'59meNeH9nu9GpYCisiov7g'
p1319
aS'NxUJVTYMz-zC_fbZItUZbQ'
p1320
aS'UbSEFK3ynSncIY_UWHH8tg'
p1321
aS'hg2a2wk8VoCdkhxi6kr_pA'
p1322
aS'-E6NMzhMX4YScGCNwbycPg'
p1323
aS'Lu5YF3RKcYrKng3Yg5YNOw'
p1324
aS'9NIBovSz93wmD2f6v0aYFQ'
p1325
aS'P2R5XxK-XMDdq0W1EEe6Rg'
p1326
aS'z2_1nAf0YQJOvfrt59-Z8g'
p1327
aS'GztbyNjdkWof8syAomhHPw'
p1328
aS'gMMAz-WbNpl_825lWbMnkw'
p1329
aS'fDZzCjlxaA4OOmnFO-i0vw'
p1330
aS'xM_tsBE4PPb_ZFcXq16Bew'
p1331
aS'IxRxm34eehQ-Vx1qcsIAWg'
p1332
aS'vEMAPsmkqav9TbZUw34xdA'
p1333
aS'2gMx4KnXbNtpoCuVCmyo3g'
p1334
aS'3sAbf_515BswQkH2-McyAg'
p1335
aS'KxkZD_Y8gbSOjhUI49SoOQ'
p1336
aS'L6Qumi_rEtOAfX2FQXm06Q'
p1337
aS'XZGrqjZT8VHVtFEE0rRD3g'
p1338
aS'OkOkzQ_QXJrCQeaNvA98kg'
p1339
aS'0m5c7vKiex-mV17hmkAJuw'
p1340
aS'Yg__fykqkqsGaPnX5x9bBQ'
p1341
aS'ThlaY1chEp6MjYZO7A6Slg'
p1342
aS'9Wy2CxVwnKoT5X4GrGzfyw'
p1343
aS'yPs18C0_-Z-hhOl7M6gCwA'
p1344
aS'hBGgmmx_RTouOzvuptw53Q'
p1345
aS'969H56ate3CpygMZxfioDQ'
p1346
aS'Oz7KdqatjW3O01lwVbue_g'
p1347
aS'Vtvsp8rafwytaY_CBZhBcQ'
p1348
aS'zSzE4rW9FE3fGqiEzZ91Vw'
p1349
aS'0QrA-Klgp1R-GzUr6uJS7Q'
p1350
aS'JF2vAMmV6GQBoQUgAfklBg'
p1351
aS'LVngid2NNh2s5cAjuOw6tw'
p1352
aS'WEYEUvkonsZ8nOKZNXd87A'
p1353
aS'SsNGCAsXJpeUY3sS99XQpQ'
p1354
aS'CF42_qXkYWAoMn5yGI1gdA'
p1355
aS'BgN7BIa627qnlJB63SrVNg'
p1356
aS'HW_QFzCZfF4yqN64F5Xx_Q'
p1357
aS'VMikOENkXA8ezh6th0LkiQ'
p1358
aS'sM7kdQ7lL7-oe3DNaJvGrQ'
p1359
aS'I3TDRONsLNW4XOEzTbqlOA'
p1360
aS'rhxBsu0k_BddgjOP9MYdeA'
p1361
aS'BYzSr-u4uuL1ELPeDRTUXg'
p1362
aS'6HzJOvPwMLLuGI4kYf4iZQ'
p1363
aS'bSFuJDDTj6BeKypgBNFBGg'
p1364
aS'bXIDbj3m4ifsGCpbPpkWZQ'
p1365
aS'tnHvCJ6kYQ1droyl_6Tg4Q'
p1366
aS'4JNXVMjX33ruAyBMlU1_hQ'
p1367
aS'YvZBcO7DyrL_0OZVQ1kZpw'
p1368
aS'fHyIN4V4tLRmipCEyh4rlQ'
p1369
aS'i02E9ld0t9c1OmceG1rBzQ'
p1370
aS'dvQxsFICv2HFMmQX8yI55w'
p1371
aS'xuSsETlnlO3XFhlBGRZkTA'
p1372
aS'tJB-8htFreI7an-_JAycsg'
p1373
aS'JJI8KMFkb1UMUftSDajY_w'
p1374
aS'TucqtiPHUT9xFT3teOPq-w'
p1375
aS'xapMz1-hujB796Jb9v0mHA'
p1376
aS'EXtCgZoxHNjXrqPCFOgQmQ'
p1377
aS'zrZsFIj4nzwp0mka-VaTqQ'
p1378
aS'9HNjFCipcQ4RQhuCGcXhfw'
p1379
aS'0ROrgaauL7hmivzyd34iKA'
p1380
aS'R3sbDS0YcJDedSmUjwE48Q'
p1381
aS'JMPT3VyjynLl3WNgFLjV8A'
p1382
aS'2JCG2coDDnQAjM-KmlRnzA'
p1383
aS'gsNv5QNfuFnD8eMhejSmGg'
p1384
aS'ltk2xcvDFvuljYIpMnRqAA'
p1385
aS'fK7ujDbjhRFEe2D7eIwK4w'
p1386
aS'iQLDQM9t88SR8kxjWNUl3Q'
p1387
aS'pJ7U2sG9kPauu2FLWKX4QQ'
p1388
aS'D6E8hJ_X3n1xMdrblPdDBw'
p1389
aS'H7ENK22FK7EN3EdLNVUACw'
p1390
aS'ZRaXUcfEt7lY3Fv-5WcVRw'
p1391
aS'-ssS6vsRYRvJgTRt5BawTw'
p1392
aS'UETunq2HsmwW9pbsSGWZ6g'
p1393
aS'4iMQGPFeMhbduKTWrwtWNg'
p1394
aS'PlcCjELzSI3SqX7mPF5cCw'
p1395
aS'3u7-xGwUKyGHkSexwBd9Wg'
p1396
aS'cMDXQoelzFder0HScvFkiw'
p1397
aS'kP2Kyoh1inEjznwNj5k-4g'
p1398
aS'Gly54cM3avJg9n2F0l8V-g'
p1399
aS'73-B0bz32vYFy3CLa-kyKw'
p1400
aS'Qn8vxCWqe8FL_5MNcc4tpg'
p1401
aS'3yNs4HBBk7kIDFBa3G9BrA'
p1402
aS'Apee77IOW5uNS7eGJe6Srg'
p1403
aS'Cyd1Pzo6mJ2xfMExtsi9xw'
p1404
aS'-hWSt4JO2zT7zd7QzLZY9Q'
p1405
aS'_qfZH26gQGCyx14pT9jPOw'
p1406
aS'mms3-uX7mK42Hj8fJqsPfw'
p1407
aS'TiNXVug4iakm9JdQW4X21Q'
p1408
aS'RunwU08GxESk17RlSGFhhA'
p1409
aS'vWarXq3TvUxj-gxES7cecw'
p1410
aS'BJBzsvaCQ2mo8CWfQ1jPiA'
p1411
aS'PQEdAHHbz5-WILZed1uZdQ'
p1412
aS'NZ6_i3FmyUMp4hsSUrGXww'
p1413
aS'JGpl_nv5hHKGEOdphj-9-g'
p1414
aS'CUsuNP_TAOIxB-RrJtDBug'
p1415
aS'APDwoLz9Aq1Spr-qEb4KPw'
p1416
aS'DQNTPtaIjCzNFOUtYb3qRg'
p1417
aS'ct7GR8_z34WRrNT2LPkbUQ'
p1418
aS'5vfSMJ3wfjbw5qbJ6VZPyQ'
p1419
aS'_tJKWq1GebP4ZRfK-aO9mA'
p1420
aS'SqWx6Xc7UygGNQ2LtUCXsA'
p1421
aS'Km5Cb21VRN9ZO9E8ZCYgyA'
p1422
aS'v3VHHliT2rvWT0id5QiAgQ'
p1423
aS'7oq94zFeIx169iLXa268XA'
p1424
aS'znSVZNBgLrYw-VbrzOqAvA'
p1425
aS'tieXOBZlj01Hk_CR_sl0pg'
p1426
aS'jyddpaCBtCq9wi5XN6ThOA'
p1427
aS'LtdT6G0qnGvNnKMKZSi9Xg'
p1428
aS'gbhsJG-0htzVWmmlvaBxqQ'
p1429
aS'LnPB32-y2lU7cqGi8-Pn7w'
p1430
aS'Q5ZD7ZAs96NAVblFDV476g'
p1431
aS'UCjtaUCtJPbTUouHtQURvQ'
p1432
aS'h_ruhAa6KGEI2rS2iMyBAQ'
p1433
aS'wHS4_jf6jcJnZ9TAOtcGpw'
p1434
aS'jZGPpPUNM2xe4N8qS4Tu3w'
p1435
aS'qvCWi43C0hV0Dx641NbEfQ'
p1436
aS'r0tvPoP73F9INWAEujiMPA'
p1437
aS'58JvYyP5zbvq5Z9EKXPtxw'
p1438
aS'tzO0DXVm0ByyDxqAIX-obw'
p1439
aS'0W9wB0UqefUrZrQh8i7o2Q'
p1440
aS'U7SnKfGExBmMKTyPvdlFYg'
p1441
aS'QpdkXudiqodRvbNh0tyjqA'
p1442
aS'bc_nukU3dtZ6zGm4oXqeuA'
p1443
aS'ire64v4ZquitAVF2_KIPqA'
p1444
aS'SPBZxmt8_nT30rNVnKHYKA'
p1445
aS'tm-lmBXzrBeKUDj_eQVZYQ'
p1446
aS'rbCrkMS0bKqEOQg_fzpSVA'
p1447
aS'NkiKSwALxibsUW2IZo7Q1Q'
p1448
aS'GPYhisHaXk_rxNY1rMG5CA'
p1449
aS'TEg4RbspEzd8aDd4J1L6Tg'
p1450
aS'C9hftUy7Tt7Nq_wNXgsc3A'
p1451
aS'JuBygU4XDjqSeW9okyvbsQ'
p1452
aS'befxZGXSqyHYPFMBtR-FPQ'
p1453
aS'H6F8CVOFILdnSUQtmvy_zQ'
p1454
aS'14Ys8nYayXPpUouHsyTN1A'
p1455
aS'DXBPI8rR9f_IthOGPDWoIQ'
p1456
aS'M6SQ1dITqcuj-sAvg8_ITg'
p1457
aS'9X2ThXK19zunkZut1KV46A'
p1458
aS'asPZR-B3clACNpKz9l12mg'
p1459
aS'N0_UiTesa8O4WQSvIMARGw'
p1460
aS'WPy74Udv6X8dgxK6F9uxCQ'
p1461
aS'BBPkwpj9kSeDuy0uOwWHJA'
p1462
aS'7cOs3Cni36UISS7S0mI_CA'
p1463
aS'9QE1yP6sWmwBvpolg5zItw'
p1464
aS'VDUwU8bHmeGgtJpe-rz3bQ'
p1465
aS'mchiTm_e8xRXPf2SWMJbkQ'
p1466
aS'-j3BF7gOIi-1tAHoFA3WIw'
p1467
aS'3PR1CuX2JGamtmoC-tuXOw'
p1468
aS'oY5WmupyC3Rj_aGKoV7Ncw'
p1469
aS'dvbxHO7tc7UbUMXieDc0_g'
p1470
aS'4CvhryAv_TvDFDkEtysUEg'
p1471
aS'UkWSzVhcrnLHeVk_4wQDFg'
p1472
aS'ZnIQBIa4A1oKb8qmQIIBrA'
p1473
aS'o3TruOSgOwNgx08QosuWTw'
p1474
aS'g4AYfj4GUMZZ5LX5rsCoBg'
p1475
aS'-mQ8to8Y4MSMS5tIjgsV3g'
p1476
aS'UrmbWzg6LyeR5UDwcKFxWA'
p1477
aS'JqEuOIuAlx_aRuWedSr9dg'
p1478
aS'l0S5b8YYyDbjttTWtKc-gg'
p1479
aS'QpxR9LNa506UN-Mt0TmQHw'
p1480
aS'MUd_a4ngT25KmKKn5hs-YA'
p1481
aS'aAnLZbEMOrhI4_RbjntWsA'
p1482
aS'PVQl2s98FnluYA2_8Etjyg'
p1483
aS'dpbY5XypBdeFmo8DsZ-DNQ'
p1484
aS'bXsc7bNjgQ12LJGwgyaQUA'
p1485
aS'EN5U0iGVbZINmi5b3is5gw'
p1486
aS'PZ4dz_ALozPk0zIpjPZY_A'
p1487
aS'hdug7nIUq5YXrDixVMVPFg'
p1488
aS'Vh_xXB42CYfhEdelpDb1Ow'
p1489
aS'VRxelK__tuQD0KBxx2LzeQ'
p1490
aS'4cZXiXms8yW4MjQ8hf4esg'
p1491
aS'WxZ7lWnN_AJCa8-Vd1A7ZQ'
p1492
aS'v06Y2xsxG7YclH0P1m5uDg'
p1493
aS'D7LmOcHWgGLmY7bPrc4H7g'
p1494
aS'_4cPh_1xl82LwvAorlhZjQ'
p1495
aS'C3X564vqQ1bYLE9rlg5Q0Q'
p1496
aS'LoPyKIfE5svacZ8tNm7WJg'
p1497
aS'gWtfYPKHM46MmoI2aIEtMQ'
p1498
aS'OvV84elHGF1AVVy9eTLZ7A'
p1499
aS'lxO7dPejoo8L-gQNfMRUUw'
p1500
aS'rV1WnfnwepMajkwY4Vtoag'
p1501
aS'-C4uFGbo6N1UOhf_tqX5tQ'
p1502
aS'Wxe4OAI2XKdTSJvooiAcvA'
p1503
aS'Ef3BJGZkis7pKT8eC3-W4A'
p1504
aS'nfQELrMgQd-r-VrveRv_Pg'
p1505
aS'SF43rzRcmrHxaFNN3Pacjg'
p1506
aS'5p3lTFUbDpsal-Wm-0zfDw'
p1507
aS'qFfEUJUIqfIYARCOF9Hgig'
p1508
aS'7rjUUpPCpQG6lZonQYGb5w'
p1509
aS'cjepn50rtOWe8hw9ynmIhQ'
p1510
aS'rlQCMHmaMjPzEh3BeaDkIg'
p1511
aS'kL4uXixsz4rbKFrUa2PyKw'
p1512
aS'TQGZ2Li-N8jF1M-_6qe_YA'
p1513
aS'QaYbXnV84aD-BdZ56EFUTw'
p1514
aS'lciZhyp_xwKNBOVyzxqhbg'
p1515
aS'E4uKTo7020DgsSeC3UQtng'
p1516
aS'd52zg-S0o940WUCK-nNiKw'
p1517
aS'tAmevVP8B7PiWxcJ0PlYVA'
p1518
aS'jsblnIZnHUQGufwVb_yX6g'
p1519
aS'Si4xIYKj7cbBou6Vkk0JJg'
p1520
aS'bczZDp0QDG5IHAN12dcKWA'
p1521
aS'PfrMyCxnrtI7G6Ru26sSYw'
p1522
aS'gCnyFIE2jYeKCfQx42y4Dg'
p1523
aS'lusHdPxiwAz3cTwSD8FdMA'
p1524
aS'PdWe3jF9YEu5fWBiQXZIgg'
p1525
aS'C37_IJ-vk51la3JrmsfR7Q'
p1526
aS'yncbXP4MVT8Uxo5TUrFnAw'
p1527
aS'l8v1GHaB4CsryK6MioZ21A'
p1528
aS'Zql0HZqgDncjXClOJFajQg'
p1529
aS'niwDrCLIqi3qvYzD-8VL1A'
p1530
aS'K0v87iFgB3sXSzw6e-BJ5w'
p1531
aS'VD8a_B589J_NlCirS8QA0Q'
p1532
aS'NL14zha-dzIsEGO-Vm1hxw'
p1533
aS'ftdKj1p2Y0ABrr9uOPn97g'
p1534
aS'yuLBsnvW2iMHPb8uit6TEQ'
p1535
aS'FljU76i8DYJbNlpibaieGw'
p1536
aS'NQRIEqfSHMwGSeA8QJKXjg'
p1537
aS'qmwBQIX6QNx1OG4yxwBrFg'
p1538
aS'LrgOTuILGxG1of5iYBgktA'
p1539
aS'GRFunGSUZxXqNCZJrN8Oow'
p1540
aS'xxYiSZgmwE-9-quy8kkHEQ'
p1541
aS'rLm9aIacaz8r6f9lCSn8og'
p1542
aS'L315h4uCgJwAKHuy3nvaWg'
p1543
aS'wbKySsrGqtl5VRlf38wnZg'
p1544
aS'mZS0PmaR6fHEttmgJ1h8Wg'
p1545
aS'wlzaxTltayMxf-jYr7zpfw'
p1546
aS'q7w9tokdouwt0vEEzsRqxg'
p1547
aS'EjdHWoYUsYIglMuFJFa4rg'
p1548
aS'qqw3TPC9ij88_ut7Acn2Lg'
p1549
aS'CPaFYTecafyEqrmmI34ZBw'
p1550
aS'JSX7i-cfoixVtnCx4BNb1g'
p1551
aS'cR3iHjc05AHfiTxgFfepKQ'
p1552
aS'RuUrfVbm5jGk8wgkdC114w'
p1553
aS'HcPaUK2fgm2gurpWLM7HXg'
p1554
aS'EJzoRTV3IUSxpnxRAzngDw'
p1555
aS'urSFHk8wJjSNbl-qrjKBVQ'
p1556
aS'90AXjqb4O-wrTHDKDoDUzg'
p1557
aS'oERXIq6Doo4eNWntKVoXOw'
p1558
aS'D0g9DqQ0y_oa2qHbqRAD0Q'
p1559
aS'KQVOXl91K79PbqAUK74elQ'
p1560
asS'ground_truth'
p1561
(lp1562
F4.5
aF4.5
aF3.5
aF4.5
aF5.0
aF4.0
aF3.0
aF4.0
aF3.0
aF3.5
aF4.0
aF4.0
aF2.0
aF3.0
aF4.5
aF2.5
aF4.0
aF3.5
aF3.0
aF5.0
aF3.5
aF3.0
aF5.0
aF4.5
aF4.5
aF3.0
aF4.5
aF4.0
aF4.5
aF3.0
aF3.5
aF4.5
aF2.0
aF3.0
aF1.5
aF4.0
aF3.5
aF4.5
aF3.5
aF4.0
aF2.0
aF4.0
aF4.5
aF3.5
aF2.5
aF3.5
aF4.0
aF2.5
aF3.5
aF3.0
aF3.0
aF2.5
aF2.5
aF4.5
aF3.5
aF3.0
aF3.5
aF3.5
aF4.0
aF5.0
aF3.5
aF3.5
aF3.0
aF3.5
aF3.5
aF4.0
aF5.0
aF3.5
aF2.0
aF4.0
aF4.5
aF4.5
aF4.5
aF5.0
aF4.5
aF4.0
aF3.5
aF3.0
aF4.0
aF5.0
aF4.0
aF4.5
aF4.0
aF3.0
aF4.0
aF3.0
aF4.0
aF4.5
aF4.5
aF4.0
aF5.0
aF5.0
aF3.5
aF5.0
aF4.0
aF5.0
aF4.0
aF4.5
aF4.0
aF4.0
aF2.5
aF3.5
aF3.0
aF4.5
aF4.5
aF4.0
aF3.5
aF3.0
aF5.0
aF2.5
aF3.0
aF5.0
aF2.5
aF3.5
aF2.5
aF3.5
aF4.5
aF3.5
aF3.5
aF4.0
aF4.0
aF4.0
aF1.0
aF3.5
aF3.5
aF4.0
aF4.0
aF3.5
aF3.0
aF1.5
aF2.0
aF4.0
aF2.5
aF3.5
aF3.5
aF1.5
aF4.5
aF3.5
aF3.5
aF3.5
aF5.0
aF3.0
aF4.0
aF5.0
aF4.0
aF3.5
aF4.5
aF2.5
aF1.0
aF4.0
aF3.0
aF4.0
aF4.0
aF2.0
aF4.0
aF3.0
aF4.0
aF5.0
aF4.5
aF2.5
aF2.0
aF4.0
aF4.0
aF4.0
aF3.5
aF4.0
aF3.0
aF3.0
aF2.0
aF3.0
aF4.5
aF5.0
aF5.0
aF4.0
aF3.5
aF4.0
aF4.0
aF4.0
aF3.5
aF4.0
aF4.0
aF4.5
aF4.0
aF4.5
aF3.5
aF2.5
aF2.5
aF5.0
aF4.5
aF3.5
aF2.5
aF2.5
aF3.5
aF5.0
aF2.0
aF4.5
aF4.0
aF3.5
aF3.5
aF4.5
aF5.0
aF4.0
aF3.5
aF3.5
aF4.5
aF3.0
aF3.5
aF3.5
aF3.5
aF3.0
aF4.0
aF4.0
aF3.5
aF3.5
aF1.5
aF3.5
aF4.0
aF2.5
aF4.0
aF4.5
aF4.0
aF3.5
aF3.0
aF5.0
aF4.5
aF5.0
aF5.0
aF3.5
aF3.5
aF2.5
aF5.0
aF3.5
aF3.5
aF3.5
aF1.5
aF4.0
aF2.5
aF3.5
aF3.0
aF4.5
aF4.0
aF3.0
aF3.0
aF4.0
aF4.0
aF4.5
aF5.0
aF5.0
aF5.0
aF4.0
aF2.5
aF3.0
aF4.5
aF5.0
aF4.5
aF5.0
aF4.0
aF3.5
aF3.5
aF4.5
aF4.0
aF3.5
aF1.5
aF4.0
aF4.5
aF4.5
aF3.5
aF4.0
aF3.5
aF2.5
aF2.0
aF4.5
aF4.0
aF5.0
aF4.0
aF2.0
aF5.0
aF5.0
aF4.5
aF2.5
aF3.5
aF4.5
aF2.5
aF4.5
aF5.0
aF3.5
aF4.5
aF3.0
aF4.0
aF2.5
aF4.0
aF3.0
aF4.0
aF3.0
aF4.5
aF3.0
aF4.0
aF5.0
aF3.5
aF2.5
aF2.0
aF5.0
aF3.5
aF1.5
aF4.5
aF4.0
aF2.5
aF4.0
aF5.0
aF5.0
aF4.0
aF4.0
aF3.5
aF2.0
aF4.5
aF4.0
aF5.0
aF4.0
aF5.0
aF5.0
aF5.0
aF4.5
aF3.5
aF4.0
aF4.0
aF4.0
aF4.5
aF5.0
aF4.5
aF4.5
aF4.5
aF4.0
aF3.5
aF4.0
aF2.5
aF3.0
aF1.5
aF5.0
aF2.5
aF3.5
aF3.5
aF3.0
aF4.5
aF2.5
aF3.0
aF4.0
aF3.5
aF4.5
aF3.0
aF3.5
aF3.5
aF4.0
aF3.5
aF3.5
aF3.5
aF1.0
aF4.0
aF3.5
aF4.5
aF5.0
aF5.0
aF3.5
aF5.0
aF3.0
aF4.0
aF5.0
aF3.5
aF4.0
aF2.5
aF3.0
aF4.5
aF3.5
aF3.5
aF5.0
aF3.0
aF2.0
aF3.0
aF4.0
aF4.5
aF4.5
aF5.0
aF4.5
aF3.0
aF1.5
aF3.0
aF4.0
aF3.0
aF2.5
aF5.0
aF2.5
aF4.0
aF4.0
aF4.0
aF3.5
aF5.0
aF4.0
aF4.0
aF3.5
aF3.5
aF3.5
aF3.5
aF3.5
aF5.0
aF3.5
aF3.0
aF4.0
aF3.5
aF5.0
aF5.0
aF3.5
aF1.0
aF2.5
aF3.5
aF5.0
aF2.0
aF4.0
aF4.0
aF4.0
aF2.5
aF3.0
aF4.0
aF4.0
aF4.0
aF2.5
aF4.0
aF4.0
aF3.5
aF4.5
aF4.0
aF3.5
aF4.0
aF2.5
aF1.5
aF4.5
aF1.5
aF4.0
aF3.0
aF4.0
aF4.5
aF4.5
aF4.0
aF3.0
aF3.5
aF3.5
aF4.5
aF5.0
aF5.0
aF3.5
aF3.5
aF3.5
aF3.0
aF2.5
aF4.0
aF3.5
aF3.5
aF4.5
aF5.0
aF3.0
aF3.0
aF2.0
aF4.5
aF5.0
aF3.5
aF5.0
aF5.0
aF4.5
aF5.0
aF2.5
aF5.0
aF3.5
aF3.5
aF4.0
aF4.5
aF3.0
aF4.0
aF4.5
aF4.0
aF4.0
aF4.0
aF3.0
aF3.5
aF4.5
aF3.5
aF1.0
aF4.0
aF3.5
aF4.5
aF3.0
aF4.0
aF2.5
aF5.0
aF5.0
aF3.0
aF5.0
aF5.0
aF4.0
aF4.0
aF4.5
aF4.0
aF2.5
aF1.5
aF5.0
aF2.5
aF4.5
aF3.5
aF3.0
aF4.0
aF3.5
aF3.0
aF5.0
aF3.5
aF3.0
aF3.0
aF4.0
aF3.5
aF2.5
aF4.5
aF2.5
aF3.5
aF2.5
aF3.5
aF4.5
aF5.0
aF4.5
aF4.0
aF4.5
aF4.5
aF5.0
aF3.5
aF4.0
aF3.0
aF3.5
aF5.0
aF4.5
aF4.0
aF4.5
aF4.5
aF3.0
aF3.0
aF5.0
aF4.0
aF3.5
aF2.0
aF4.0
aF4.5
aF3.0
aF4.5
aF2.0
aF3.0
aF3.5
aF4.5
aF3.0
aF5.0
aF4.0
aF1.0
aF4.5
aF4.0
aF5.0
aF4.0
aF4.0
aF5.0
aF1.5
aF2.5
aF5.0
aF3.0
aF5.0
aF1.0
aF3.5
aF2.5
aF3.5
aF3.0
aF4.5
aF4.0
aF3.0
aF4.0
aF3.0
aF3.0
aF3.5
aF3.5
aF5.0
aF4.0
aF1.0
aF3.5
aF3.5
aF3.5
aF2.5
aF5.0
aF4.5
aF4.0
aF4.5
aF4.0
aF5.0
aF4.5
aF4.0
aF3.5
aF3.5
aF4.5
aF3.5
aF4.5
aF4.0
aF4.0
aF3.5
aF5.0
aF3.5
aF5.0
aF3.5
aF4.0
aF2.5
aF2.5
aF3.0
aF5.0
aF5.0
aF3.0
aF1.0
aF4.0
aF3.5
aF1.0
aF3.5
aF2.5
aF3.5
aF4.0
aF3.0
aF3.0
aF3.0
aF4.5
aF3.0
aF4.5
aF4.0
aF4.0
aF2.5
aF3.5
aF4.5
aF3.5
aF4.0
aF4.5
aF2.5
aF1.5
aF4.0
aF2.0
aF2.5
aF3.0
aF4.5
aF3.0
aF4.5
aF4.0
aF2.5
aF4.0
aF4.0
aF5.0
aF3.5
aF2.0
aF2.5
aF3.0
aF1.0
aF3.0
aF2.5
aF5.0
aF3.0
aF5.0
aF4.0
aF4.0
aF3.0
aF5.0
aF3.5
aF4.0
aF3.0
aF2.5
aF3.0
aF4.0
aF1.5
aF4.5
aF4.5
aF4.5
aF3.5
aF2.5
aF4.0
aF2.5
aF4.0
aF5.0
aF2.5
aF1.5
aF4.0
aF3.5
aF4.5
aF3.0
aF5.0
aF2.5
aF4.5
aF3.0
aF4.0
aF2.5
aF4.0
aF3.0
aF3.0
aF4.5
aF1.0
aF2.5
aF3.5
aF4.0
aF3.0
aF4.0
aF3.5
aF5.0
aF3.0
aF3.0
aF5.0
aF1.5
aF4.0
aF4.5
aF3.5
aF3.5
aF3.0
aF3.5
aF3.0
aF3.5
aF3.0
aF4.5
aF4.5
aF3.5
aF3.5
aF3.5
aF4.0
aF4.0
aF4.0
aF5.0
aF3.0
aF4.5
aF1.0
aF4.0
aF3.5
aF5.0
aF2.5
aF4.0
aF4.0
aF4.0
aF4.0
aF4.0
aF4.0
aF4.0
aF4.0
aF4.5
aF4.0
aF4.0
aF3.0
aF4.0
aF5.0
aF4.0
aF2.5
aF2.5
aF1.0
aF3.5
aF3.5
aF4.0
aF4.5
aF3.5
aF3.5
aF4.0
aF2.5
aF5.0
aF3.5
aF4.5
aF5.0
aF1.5
aF4.5
aF3.5
aF3.5
aF5.0
aF3.5
aF4.5
aF2.5
aF3.5
aF1.5
aF4.0
aF3.0
aF4.0
aF2.5
aF4.0
aF2.5
aF4.5
aF3.5
aF4.0
aF2.5
aF4.5
aF4.0
aF3.5
aF3.5
aF4.5
aF5.0
aF2.5
aF2.5
aF4.0
aF3.5
aF4.0
aF3.0
aF5.0
aF3.5
aF4.5
aF5.0
aF3.0
aF4.0
aF3.5
aF3.0
aF5.0
aF3.5
aF5.0
aF5.0
aF4.0
aF3.0
aF3.5
aF4.0
aF3.5
aF3.0
aF3.0
aF5.0
aF3.5
aF4.0
aF4.0
aF5.0
aF4.5
aF4.0
aF3.5
aF2.5
aF4.0
aF3.5
aF3.0
aF4.5
aF4.0
aF2.5
aF4.5
aF3.5
aF3.5
aF5.0
aF4.0
aF4.0
aF2.5
aF3.5
aF3.5
aF4.0
aF3.5
aF2.0
aF3.0
aF2.5
aF5.0
aF4.0
aF2.0
aF3.0
aF5.0
aF5.0
aF3.0
aF4.0
aF4.5
aF3.5
aF3.0
aF3.5
aF4.0
aF2.0
aF3.5
aF4.0
aF3.5
aF4.5
aF4.0
aF3.0
aF4.0
aF2.5
aF1.5
aF2.5
aF2.5
aF4.0
aF4.0
aF5.0
aF4.0
aF4.0
aF1.5
aF5.0
aF1.5
aF4.5
aF3.5
aF4.0
aF3.0
aF4.5
aF4.0
aF3.5
aF3.5
aF2.5
aF3.0
aF4.5
aF3.5
aF5.0
aF5.0
aF4.5
aF3.0
aF4.0
aF3.0
aF4.0
aF3.5
aF5.0
aF4.5
aF2.5
aF3.0
aF3.0
aF4.0
aF3.5
aF3.0
aF4.5
aF2.5
aF3.5
aF3.5
aF2.5
aF3.5
aF2.0
aF4.0
aF4.5
aF4.0
aF4.0
aF2.5
aF5.0
aF3.5
aF3.0
aF1.0
aF4.5
aF3.0
aF2.5
aF4.0
aF2.5
aF4.5
aF5.0
aF3.0
aF5.0
aF3.5
aF2.5
aF5.0
aF4.5
aF2.0
aF4.5
aF3.0
aF3.0
aF3.5
aF3.0
aF4.5
aF3.5
aF4.0
aF3.5
aF5.0
aF3.5
aF4.0
aF3.0
aF4.5
aF4.5
aF2.5
aF3.5
aF2.5
aF4.5
aF2.0
aF2.5
aF3.5
aF4.0
aF3.5
aF4.0
aF4.0
aF4.5
aF3.5
aF1.0
aF3.5
aF5.0
aF4.0
aF4.0
aF4.5
aF4.0
aF3.0
aF4.0
aF4.5
aF4.0
aF3.5
aF4.5
aF1.0
aF3.5
aF4.0
aF5.0
aF4.5
aF4.5
aF4.0
aF3.5
aF3.0
aF2.5
aF4.0
aF4.0
aF2.0
aF5.0
aF3.0
aF2.5
aF3.5
aF4.0
aF3.5
aF4.0
aF3.0
aF4.0
aF5.0
aF3.5
aF3.0
aF2.0
aF5.0
aF3.0
aF3.5
aF2.5
aF3.5
aF1.0
aF4.5
aF2.5
aF4.0
aF4.0
aF3.5
aF5.0
aF3.5
aF4.5
aF3.0
aF3.5
aF3.5
aF2.5
aF4.5
aF3.5
aF4.5
aF2.5
aF4.0
aF4.0
aF4.5
aF4.5
aF5.0
aF4.5
aF3.5
aF3.0
aF2.5
aF5.0
aF4.5
aF5.0
aF4.5
aF4.0
aF3.5
aF4.0
aF4.0
aF4.0
aF3.5
aF3.5
aF4.5
aF3.5
aF3.5
aF3.5
aF5.0
aF5.0
aF3.5
aF3.0
aF3.5
aF5.0
aF3.5
aF4.0
aF4.0
aF3.0
aF2.5
aF3.5
aF3.5
aF4.0
aF2.0
aF1.5
aF4.5
aF2.0
aF4.0
aF4.0
aF4.5
aF4.5
aF4.0
aF3.5
aF4.0
aF1.5
aF5.0
aF4.0
aF5.0
aF2.5
aF4.0
aF3.5
aF4.0
aF3.5
aF4.0
aF4.0
aF4.5
aF3.5
aF4.0
aF3.5
aF3.0
aF2.0
aF3.5
aF3.0
aF4.5
aF3.5
aF5.0
aF3.5
aF4.5
aF1.5
aF5.0
aF4.5
aF4.0
aF5.0
aF4.0
aF4.0
aF3.0
aF3.5
aF3.5
aF4.0
aF2.5
aF4.0
aF3.0
aF3.0
aF4.0
aF3.5
aF5.0
aF5.0
aF4.5
aF3.5
aF2.5
aF3.0
aF2.5
aF4.5
aF5.0
aF4.0
aF3.0
aF5.0
aF5.0
aF3.5
aF5.0
aF3.0
aF5.0
aF2.0
aF4.0
aF3.0
aF4.0
aF4.0
aF5.0
aF5.0
aF3.5
aF3.5
aF3.0
aF3.5
aF4.0
aF3.5
aF4.5
aF2.0
aF4.0
aF3.0
aF1.0
aF3.5
aF5.0
aF3.0
aF4.0
aF4.0
aF4.5
aF3.5
aF4.0
aF3.5
aF1.5
aF2.5
aF3.5
aF2.5
aF3.5
aF4.0
aF4.0
aF3.0
aF3.0
aF4.5
aF4.5
aF2.5
aF4.5
aF5.0
aF3.5
aF2.5
aF5.0
aF5.0
aF4.5
aF4.5
aF3.5
aF4.0
aF4.0
aF5.0
aF4.5
aF4.0
aF4.5
aF3.0
aF5.0
aF4.0
aF4.0
aF3.0
aF2.5
aF4.5
aF3.5
aF3.5
aF3.0
aF5.0
aF4.5
aF4.0
aF3.5
aF3.5
aF5.0
aF4.5
aF3.0
aF3.5
aF4.0
aF2.5
aF4.5
aF3.5
aF3.5
aF2.5
aF3.0
aF3.0
aF5.0
aF3.0
aF3.5
aF4.0
aF4.0
aF2.5
aF3.5
aF3.5
aF3.5
aF3.5
aF5.0
aF3.5
aF4.5
aF3.5
aF3.5
aF5.0
aF2.5
aF3.5
aF4.5
aF4.0
aF2.0
aF4.5
aF2.0
aF4.5
aF4.0
aF3.0
aF2.0
aF4.0
aF2.0
aF2.5
aF4.0
aF2.5
aF2.0
aF4.0
aF4.5
aF4.0
aF3.0
aF3.5
aF3.5
aF3.5
aF4.5
aF3.0
aF3.0
aF4.5
aF3.0
aF5.0
aF4.0
aF3.0
aF2.0
aF4.0
aF4.5
aF5.0
aF3.5
aF3.5
aF2.5
aF2.5
aF4.0
aF1.5
aF4.0
aF2.0
aF4.0
aF4.0
aF3.5
aF1.0
aF5.0
aF4.5
aF3.0
aF3.5
aF1.0
aF4.5
aF5.0
aF3.5
aF3.0
aF2.5
aF5.0
aF3.5
aF3.5
aF3.0
aF4.0
aF4.5
aF3.5
aF2.5
aF3.5
aF5.0
aF4.5
aF5.0
aF3.5
aF4.0
aF3.0
aF4.0
aF4.5
aF3.0
aF4.0
aF5.0
aF3.5
aF4.5
aF4.5
aF3.5
aF4.5
aF4.5
aF4.5
aF2.5
aF4.5
aF3.0
aF4.5
aF4.0
aF2.5
aF4.0
aF4.5
aF3.0
aF5.0
aF4.5
aF3.0
aF4.0
aF5.0
aF4.0
aF3.5
aF3.5
aF3.0
aF4.0
aF1.5
aF1.5
aF5.0
aF3.5
aF2.5
aF4.0
aF4.5
aF4.0
aF2.0
aF4.5
aF3.0
aF2.5
aF2.5
aF4.0
aF4.0
aF3.5
aF3.5
aF3.5
aF5.0
aF4.0
aF1.5
aF4.0
aF3.0
aF3.5
aF4.0
aF4.0
aF3.5
aF4.5
aF4.0
aF5.0
aF4.5
aF4.0
aF4.0
aF2.5
aF4.5
aF4.5
aF4.0
aF4.5
aF4.0
aF4.0
aF5.0
aF3.5
aF4.5
aF5.0
aF4.0
aF4.5
aF1.0
aF5.0
aF4.0
aF4.0
aF5.0
aF3.5
aF3.5
aF3.5
aF5.0
aF3.0
aF3.0
aF5.0
aF4.0
aF5.0
aF3.5
aF3.5
aF3.5
aF4.0
aF3.0
aF4.0
aF2.5
aF3.0
aF4.5
aF4.0
aF4.5
aF4.0
aF4.5
aF1.0
aF3.0
aF4.0
aF4.0
aF4.0
aF3.5
aF4.5
aF5.0
aF3.0
aF2.0
aF4.0
aF4.5
aF4.5
aF2.5
aF5.0
aF4.5
aF4.0
aF3.0
aF3.5
aF3.5
aF4.0
aF4.0
aF2.0
aF4.5
aF5.0
aF3.5
aF3.5
aF5.0
aF2.5
aF3.0
aF4.0
aF4.5
aF3.5
aF5.0
aF4.5
aF4.0
aF3.5
aF3.5
aF3.5
aF4.0
aF4.0
aF2.0
aF2.5
aF5.0
aF1.5
aF3.0
aF4.0
aF5.0
aF3.5
aF3.0
aF4.0
aF3.5
aF5.0
aF5.0
aF4.5
aF3.5
aF4.0
aF5.0
aF5.0
aF2.0
aF5.0
aF5.0
aF3.5
aF2.5
aF4.0
aF5.0
aF5.0
aF1.0
aF3.5
aF2.5
aF4.5
aF2.5
aF3.5
aF4.5
aF5.0
aF3.5
aF3.5
aF5.0
aF3.5
aF3.5
aF3.5
aF1.5
aF4.0
aF2.5
aF3.5
aF3.5
aF4.5
aF4.5
aF3.5
aF5.0
aF3.0
aF4.0
aF4.0
aF4.5
aF4.0
aF3.0
aF4.5
aF3.5
aF3.5
aF4.0
aF4.0
aF3.5
aF4.5
aF4.0
aF3.0
aF3.5
aF3.5
aF4.0
aF4.0
aF3.0
aF3.0
aF4.0
aF4.5
aF3.0
aF2.5
aF3.5
aF4.0
aF5.0
aF5.0
aF3.0
aF4.5
aF4.5
aF3.5
aF5.0
aF2.0
aF4.5
aF4.0
aF5.0
aF3.5
aF5.0
aF4.5
aF4.0
aF3.0
aF4.0
aF4.0
aF3.5
aF5.0
aF3.0
aF2.5
aF2.5
aF4.0
aF3.0
aF3.0
aF4.0
aF3.5
aF3.5
aF4.0
aF5.0
aF5.0
aF3.5
aF5.0
aF4.0
aF4.5
aF4.5
aF3.0
asS'predict_result'
p1563
(lp1564
F3.2
aF3.4
aF3.5
aF3.9
aF4.3
aF3.2
aF4.4
aF4.6
aF3.7
aF3.7
aF3.0
aF3.8
aF4.1
aF2.6
aF3.2
aF3.2
aF3.5
aF3.4
aF2.8
aF4.4
aF4.7
aF4.2
aF3.7
aF3.4
aF3.8
aF3.8
aF3.4
aF3.3
aF3.8
aF3.5
aF3.6
aF3.4
aF3.1
aF3.8
aF3.5
aF3.3
aF3.8
aF4.3
aF3.6
aF3.0
aF3.5
aF3.1
aF4.5
aF3.7
aF3.5
aF3.6
aF3.2
aF4.2
aF3.4
aF3.6
aF3.2
aF3.2
aF3.1
aF3.3
aF3.6
aF3.7
aF3.0
aF3.0
aF3.1
aF3.3
aF4.0
aF3.8
aF3.5
aF3.9
aF3.0
aF3.6
aF2.5
aF3.2
aF3.5
aF3.9
aF4.0
aF3.3
aF3.3
aF3.4
aF3.7
aF3.4
aF3.4
aF3.8
aF3.0
aF4.7
aF3.7
aF4.0
aF2.1
aF3.8
aF4.3
aF3.1
aF3.8
aF3.5
aF3.7
aF3.3
aF4.0
aF3.3
aF4.0
aF4.4
aF3.8
aF3.7
aF4.0
aF4.8
aF3.5
aF2.8
aF3.7
aF3.6
aF2.9
aF3.8
aF3.8
aF4.2
aF3.8
aF3.5
aF3.3
aF4.1
aF3.8
aF4.0
aF3.4
aF3.5
aF3.7
aF3.4
aF4.1
aF3.6
aF3.6
aF3.7
aF3.8
aF2.9
aF3.8
aF2.9
aF3.3
aF3.2
aF3.6
aF3.9
aF3.7
aF3.4
aF3.7
aF4.7
aF3.7
aF3.7
aF3.6
aF3.2
aF3.6
aF3.7
aF3.6
aF3.4
aF4.0
aF3.3
aF3.6
aF3.9
aF3.7
aF3.6
aF3.6
aF3.5
aF4.9
aF3.5
aF3.6
aF4.0
aF3.9
aF3.3
aF3.2
aF3.2
aF4.6
aF3.0
aF3.6
aF3.1
aF3.7
aF3.4
aF3.4
aF3.6
aF3.7
aF4.0
aF3.1
aF3.3
aF2.8
aF3.9
aF3.6
aF3.5
aF4.1
aF3.1
aF4.1
aF3.2
aF3.2
aF3.6
aF4.7
aF3.8
aF4.2
aF4.3
aF3.5
aF2.5
aF3.3
aF3.9
aF3.7
aF3.5
aF3.9
aF3.3
aF4.0
aF3.2
aF3.7
aF3.9
aF4.1
aF3.9
aF3.1
aF3.2
aF4.8
aF3.4
aF4.1
aF3.3
aF3.1
aF3.5
aF3.9
aF3.3
aF3.5
aF3.0
aF3.5
aF3.2
aF3.3
aF3.9
aF2.9
aF3.4
aF3.8
aF3.4
aF3.8
aF4.0
aF3.2
aF3.6
aF3.5
aF3.5
aF3.0
aF3.4
aF2.8
aF3.3
aF3.9
aF3.7
aF3.3
aF2.9
aF3.8
aF3.6
aF3.2
aF3.3
aF2.6
aF3.2
aF3.6
aF3.6
aF3.2
aF3.7
aF4.1
aF3.3
aF2.6
aF3.8
aF3.7
aF4.1
aF3.4
aF3.0
aF3.7
aF3.2
aF3.7
aF4.1
aF3.0
aF3.5
aF4.4
aF3.6
aF4.1
aF3.1
aF3.2
aF3.5
aF4.2
aF4.0
aF3.1
aF3.2
aF3.9
aF3.9
aF4.1
aF4.1
aF3.2
aF4.2
aF3.8
aF3.2
aF3.2
aF4.7
aF4.0
aF3.2
aF4.4
aF4.0
aF3.8
aF3.4
aF3.3
aF3.6
aF3.6
aF4.2
aF4.1
aF3.3
aF3.9
aF3.8
aF4.0
aF3.2
aF3.2
aF3.9
aF4.4
aF3.1
aF4.0
aF3.3
aF3.1
aF3.4
aF4.6
aF3.5
aF3.2
aF3.4
aF3.9
aF3.3
aF4.0
aF3.3
aF3.8
aF3.9
aF3.0
aF3.5
aF3.2
aF3.8
aF3.6
aF4.0
aF3.6
aF3.8
aF4.3
aF3.9
aF3.1
aF2.8
aF3.8
aF2.8
aF3.3
aF3.8
aF3.5
aF3.4
aF4.2
aF4.8
aF4.0
aF3.3
aF3.9
aF3.8
aF3.5
aF3.3
aF4.4
aF3.1
aF3.7
aF2.6
aF3.7
aF3.8
aF3.7
aF3.8
aF3.2
aF4.0
aF3.8
aF3.7
aF4.0
aF4.3
aF3.7
aF3.1
aF3.8
aF3.7
aF5.0
aF3.6
aF4.3
aF4.7
aF3.5
aF3.9
aF3.2
aF4.4
aF3.6
aF3.6
aF4.7
aF3.4
aF3.2
aF3.6
aF4.3
aF3.5
aF3.6
aF4.1
aF3.9
aF3.7
aF3.9
aF3.5
aF3.4
aF3.0
aF3.6
aF3.7
aF3.5
aF3.9
aF3.8
aF3.9
aF3.3
aF3.1
aF4.0
aF3.1
aF3.9
aF3.6
aF4.7
aF3.3
aF3.8
aF3.4
aF3.3
aF2.8
aF3.5
aF3.2
aF3.8
aF2.8
aF3.8
aF3.7
aF2.8
aF4.1
aF3.9
aF4.2
aF3.7
aF3.3
aF3.6
aF4.6
aF4.7
aF3.7
aF2.6
aF3.3
aF3.3
aF4.5
aF3.2
aF4.2
aF4.1
aF3.3
aF3.8
aF4.2
aF3.4
aF3.8
aF3.7
aF4.0
aF2.6
aF2.6
aF2.7
aF3.0
aF2.9
aF2.7
aF2.6
aF3.6
aF3.9
aF3.4
aF3.7
aF4.0
aF3.4
aF4.4
aF4.4
aF3.5
aF3.1
aF2.7
aF3.7
aF3.3
aF3.7
aF4.2
aF3.9
aF4.6
aF3.2
aF3.3
aF3.4
aF3.6
aF3.1
aF3.3
aF3.7
aF3.7
aF4.6
aF3.7
aF3.6
aF3.8
aF3.3
aF4.1
aF3.5
aF2.4
aF4.6
aF3.5
aF4.0
aF3.5
aF4.4
aF3.3
aF4.0
aF3.4
aF3.4
aF3.7
aF3.4
aF4.0
aF3.6
aF2.7
aF2.6
aF3.6
aF3.0
aF3.4
aF4.3
aF3.7
aF3.4
aF4.2
aF3.7
aF3.3
aF3.6
aF3.4
aF4.6
aF3.4
aF3.6
aF4.1
aF4.5
aF3.7
aF3.7
aF3.7
aF3.6
aF4.7
aF4.4
aF4.4
aF3.2
aF4.2
aF3.6
aF3.9
aF3.7
aF3.4
aF3.9
aF4.3
aF4.0
aF3.2
aF3.4
aF4.2
aF3.0
aF3.4
aF3.6
aF3.4
aF4.5
aF3.6
aF4.1
aF3.7
aF3.4
aF4.6
aF3.0
aF3.5
aF3.7
aF3.6
aF3.6
aF3.8
aF3.7
aF2.9
aF4.0
aF4.1
aF3.2
aF3.1
aF4.0
aF3.7
aF3.4
aF4.0
aF4.2
aF3.7
aF3.7
aF3.0
aF4.2
aF3.8
aF3.8
aF4.8
aF3.8
aF3.7
aF3.8
aF3.4
aF3.6
aF3.5
aF2.8
aF3.6
aF4.1
aF3.4
aF4.2
aF4.2
aF3.9
aF3.7
aF4.0
aF4.6
aF3.6
aF3.0
aF3.8
aF3.7
aF4.3
aF3.1
aF2.6
aF4.0
aF4.1
aF3.8
aF3.4
aF3.4
aF3.3
aF4.3
aF3.6
aF4.0
aF4.3
aF4.8
aF3.4
aF3.2
aF2.8
aF3.6
aF4.3
aF4.3
aF3.3
aF3.1
aF4.0
aF4.5
aF3.7
aF3.2
aF3.7
aF3.7
aF3.3
aF3.5
aF4.4
aF3.7
aF4.0
aF3.9
aF3.9
aF2.9
aF3.7
aF3.5
aF3.3
aF2.7
aF4.0
aF3.2
aF4.8
aF3.4
aF2.8
aF2.9
aF3.5
aF3.4
aF3.2
aF2.7
aF3.9
aF3.6
aF3.5
aF4.2
aF4.0
aF3.2
aF3.2
aF2.7
aF3.2
aF3.3
aF3.9
aF3.8
aF3.0
aF3.6
aF3.8
aF3.5
aF4.4
aF3.9
aF3.7
aF4.1
aF4.2
aF3.3
aF3.6
aF3.2
aF4.3
aF3.8
aF3.4
aF3.2
aF3.7
aF3.0
aF3.4
aF3.2
aF3.7
aF3.8
aF4.4
aF4.1
aF4.2
aF4.2
aF3.6
aF2.8
aF3.3
aF3.9
aF3.7
aF3.0
aF3.6
aF3.7
aF3.3
aF3.8
aF3.3
aF3.7
aF3.4
aF3.6
aF4.1
aF3.8
aF3.9
aF3.4
aF2.9
aF4.1
aF2.5
aF2.8
aF3.8
aF3.5
aF3.8
aF4.1
aF3.9
aF4.1
aF4.3
aF4.4
aF3.7
aF3.7
aF3.6
aF3.5
aF3.0
aF3.3
aF3.8
aF4.0
aF3.4
aF3.1
aF3.4
aF4.2
aF3.6
aF3.9
aF3.4
aF3.7
aF3.6
aF3.6
aF3.1
aF4.0
aF3.1
aF2.9
aF3.9
aF3.1
aF3.5
aF3.4
aF3.7
aF3.1
aF2.8
aF3.4
aF3.9
aF3.7
aF3.4
aF3.6
aF3.2
aF3.7
aF3.7
aF3.4
aF3.8
aF4.4
aF3.7
aF2.9
aF3.3
aF3.6
aF2.5
aF3.1
aF3.3
aF3.8
aF3.5
aF3.3
aF3.3
aF4.2
aF3.0
aF3.5
aF3.9
aF3.4
aF2.6
aF4.1
aF3.4
aF4.3
aF3.9
aF3.3
aF4.1
aF3.8
aF3.8
aF3.5
aF3.3
aF3.4
aF4.0
aF3.4
aF3.8
aF3.3
aF4.8
aF3.3
aF3.8
aF3.9
aF4.1
aF4.2
aF3.8
aF3.6
aF3.5
aF3.4
aF3.9
aF2.8
aF3.7
aF3.7
aF3.7
aF3.5
aF3.1
aF3.9
aF4.2
aF4.0
aF3.6
aF3.0
aF3.5
aF4.2
aF3.8
aF2.9
aF4.0
aF3.5
aF3.5
aF3.7
aF4.0
aF3.7
aF3.7
aF4.4
aF3.9
aF3.2
aF3.8
aF3.9
aF3.4
aF3.6
aF3.9
aF3.3
aF3.4
aF3.4
aF4.5
aF4.4
aF4.0
aF3.6
aF3.9
aF3.7
aF3.2
aF3.6
aF4.6
aF3.3
aF3.7
aF4.5
aF4.4
aF2.8
aF3.2
aF3.3
aF3.3
aF3.6
aF4.4
aF3.7
aF3.8
aF4.3
aF4.0
aF3.4
aF3.3
aF3.9
aF4.2
aF3.3
aF3.2
aF3.7
aF3.6
aF3.9
aF4.1
aF3.4
aF3.3
aF4.2
aF4.6
aF3.1
aF5.0
aF3.1
aF3.7
aF4.0
aF3.1
aF3.6
aF4.4
aF3.8
aF3.4
aF4.1
aF4.3
aF3.6
aF3.9
aF4.2
aF3.5
aF3.5
aF3.5
aF3.2
aF3.5
aF3.4
aF3.8
aF3.7
aF4.0
aF3.0
aF3.6
aF3.5
aF2.7
aF4.1
aF3.3
aF4.3
aF4.2
aF4.4
aF3.9
aF4.2
aF3.0
aF4.5
aF3.5
aF3.7
aF3.1
aF4.3
aF3.6
aF3.5
aF3.7
aF3.9
aF3.0
aF3.0
aF3.5
aF4.3
aF4.3
aF4.2
aF3.7
aF2.9
aF3.9
aF3.1
aF3.9
aF4.0
aF3.1
aF4.1
aF3.2
aF3.2
aF3.8
aF2.9
aF3.8
aF3.6
aF3.4
aF3.6
aF3.2
aF2.6
aF3.3
aF4.4
aF3.9
aF3.9
aF4.4
aF3.0
aF3.4
aF4.5
aF3.9
aF4.6
aF4.6
aF4.0
aF3.8
aF4.9
aF3.8
aF2.6
aF3.8
aF2.8
aF3.3
aF4.0
aF2.8
aF3.3
aF4.5
aF4.3
aF3.2
aF4.0
aF3.9
aF3.4
aF3.4
aF3.4
aF4.2
aF2.6
aF3.7
aF4.7
aF4.3
aF3.7
aF4.4
aF4.4
aF4.0
aF3.7
aF3.4
aF2.9
aF3.9
aF3.8
aF4.3
aF3.5
aF4.1
aF3.0
aF2.9
aF3.5
aF3.7
aF3.8
aF3.5
aF4.3
aF3.7
aF3.9
aF3.8
aF3.6
aF3.8
aF4.1
aF3.0
aF3.0
aF4.4
aF3.5
aF3.9
aF3.8
aF3.0
aF3.9
aF3.8
aF3.7
aF2.8
aF4.6
aF2.0
aF3.1
aF3.5
aF3.0
aF4.0
aF3.7
aF3.3
aF3.8
aF3.2
aF3.7
aF3.5
aF3.9
aF4.2
aF3.5
aF3.3
aF2.5
aF3.1
aF4.0
aF4.9
aF3.4
aF4.0
aF3.3
aF3.4
aF4.0
aF3.4
aF3.9
aF3.6
aF3.2
aF3.7
aF3.4
aF4.0
aF4.4
aF3.4
aF3.5
aF4.0
aF3.7
aF3.4
aF4.0
aF4.0
aF3.3
aF3.8
aF3.9
aF3.6
aF3.3
aF4.5
aF3.0
aF4.5
aF3.8
aF4.4
aF3.7
aF3.8
aF3.2
aF3.6
aF3.9
aF3.9
aF3.1
aF3.4
aF3.3
aF3.2
aF3.6
aF3.1
aF3.9
aF3.6
aF3.6
aF4.2
aF4.0
aF3.8
aF3.8
aF3.7
aF3.8
aF3.2
aF3.3
aF3.2
aF4.0
aF3.8
aF4.3
aF3.1
aF3.7
aF3.3
aF3.5
aF3.5
aF3.7
aF3.9
aF3.8
aF4.2
aF2.2
aF4.4
aF3.9
aF3.4
aF3.4
aF2.7
aF3.7
aF4.4
aF3.0
aF4.3
aF3.2
aF3.6
aF3.8
aF4.7
aF2.8
aF3.7
aF2.9
aF3.2
aF3.8
aF3.7
aF3.5
aF3.8
aF3.8
aF3.8
aF4.1
aF3.8
aF2.7
aF4.2
aF3.4
aF3.3
aF3.5
aF3.6
aF3.8
aF3.4
aF4.0
aF4.0
aF4.6
aF3.8
aF3.2
aF3.5
aF3.5
aF3.3
aF3.6
aF3.3
aF3.8
aF3.5
aF3.3
aF4.1
aF4.2
aF3.5
aF3.4
aF3.6
aF3.4
aF2.9
aF4.0
aF3.8
aF4.0
aF4.2
aF4.3
aF4.5
aF3.4
aF3.2
aF4.3
aF3.9
aF2.8
aF3.1
aF3.6
aF4.4
aF3.1
aF3.7
aF3.9
aF4.1
aF3.8
aF3.4
aF3.1
aF3.4
aF3.7
aF2.9
aF2.6
aF3.9
aF3.6
aF3.1
aF3.4
aF4.0
aF4.0
aF4.1
aF3.4
aF3.4
aF4.0
aF3.5
aF3.3
aF4.3
aF3.5
aF4.2
aF3.6
aF2.8
aF4.3
aF3.5
aF2.7
aF3.0
aF3.4
aF4.2
aF3.4
aF4.4
aF3.5
aF3.5
aF2.9
aF4.1
aF4.6
aF3.2
aF4.0
aF3.8
aF3.4
aF4.5
aF3.1
aF4.0
aF2.8
aF3.2
aF3.1
aF3.6
aF4.0
aF3.8
aF3.3
aF3.9
aF2.7
aF3.1
aF4.0
aF3.8
aF3.8
aF3.7
aF3.4
aF3.0
aF3.2
aF4.5
aF2.9
aF3.1
aF3.1
aF3.9
aF4.2
aF4.1
aF3.0
aF3.9
aF3.4
aF3.9
aF4.0
aF3.7
aF4.1
aF3.6
aF3.1
aF3.5
aF3.4
aF3.7
aF3.7
aF3.7
aF3.4
aF3.3
aF4.3
aF4.1
aF3.2
aF3.7
aF3.9
aF3.4
aF3.2
aF4.0
aF3.4
aF3.9
aF4.1
aF4.1
aF4.3
aF3.5
aF3.6
aF2.0
aF3.7
aF3.1
aF4.2
aF3.8
aF3.0
aF3.7
aF4.1
aF3.4
aF3.5
aF4.2
aF3.7
aF3.7
aF3.3
aF4.2
aF4.2
aF2.3
aF4.1
aF3.1
aF4.0
aF3.2
aF3.1
aF3.6
aF3.7
aF3.7
aF3.8
aF3.4
aF3.7
aF3.5
aF3.1
aF4.0
aF3.3
aF3.3
aF3.9
aF4.3
aF4.1
aF4.0
aF4.2
aF4.5
aF4.9
aF3.2
aF3.4
aF3.9
aF4.7
aF2.7
aF3.1
aF3.2
aF3.8
aF3.4
aF3.8
aF3.4
aF3.5
aF3.6
aF3.8
aF4.4
aF4.6
aF3.2
aF3.8
aF3.3
aF4.1
aF3.8
aF3.0
aF3.3
aF3.6
aF3.1
aF3.5
aF3.5
aF3.7
aF3.7
aF4.0
aF4.2
aF4.0
aF4.7
aF2.9
aF3.2
aF3.5
aF4.2
aF4.3
aF4.3
aF3.4
aF2.7
aF4.1
aF4.0
aF2.7
aF3.4
aF4.5
aF3.5
aF3.9
aF4.2
aF3.5
aF4.2
aF3.5
aF2.6
aF3.8
aF3.2
aF3.1
aF3.5
aF4.0
aF4.0
aF3.1
aF3.6
aF4.0
aF3.9
aF3.9
aF3.3
aF4.6
aF3.2
aF3.5
aF3.2
aF3.7
aF3.7
aF4.1
aF4.3
aF3.1
aF3.8
aF3.6
aF3.4
aF3.5
aF4.1
aF3.6
aF3.8
aF3.2
aF4.1
aF3.5
aF4.2
aF4.2
aF3.9
aF3.3
aF4.1
aF3.9
aF4.0
aF3.3
aF3.1
aF3.5
aF4.7
aF3.6
aF2.8
aF3.4
aF3.8
aF3.5
aF3.4
aF4.3
aF3.9
aF3.7
aF4.6
aF3.2
aF3.8
aF3.6
aF3.8
aF3.4
aF3.8
aF3.8
aF3.8
aF3.7
aF3.9
aF2.7
aF3.2
aF3.4
aF3.4
aF3.8
aF2.9
aF3.8
aF3.7
aF3.9
aF3.4
aF3.6
aF3.4
aF3.1
aF3.5
aF3.0
aF3.4
aF4.0
aF3.5
aF4.0
aF3.8
aF3.2
aF3.5
aF3.9
aF3.2
aF3.7
aF3.2
aF3.7
aF3.0
aF4.6
aF2.8
aF4.9
aF3.5
aF4.4
aF3.6
aF3.2
aF3.6
aF3.0
aF3.6
aF3.3
aF3.6
aF3.7
aF3.6
aF3.9
aF4.0
aF4.0
aF4.0
aF3.2
aF3.7
aF2.8
aF3.4
aF3.6
aF3.3
aF3.4
aF3.2
aF4.2
aF4.1
aF3.4
aF4.3
aF4.1
aF4.5
aF3.8
aF4.2
aF3.5
aF2.9
aF4.5
aF4.0
aF3.0
aF3.5
aF3.5
aF3.1
aF4.3
aF3.4
aF4.2
aF3.9
aF3.6
aF3.1
aF3.2
aF3.9
aF3.5
aF3.5
aF3.6
aF4.4
aF4.4
aF3.4
aF2.8
aF4.4
aF3.3
aF2.9
aF3.2
aF4.6
aF3.0
aF3.8
aF3.2
aF3.6
aF4.1
aF3.5
aF3.3
aF4.6
aF3.3
aF4.0
aF2.8
aF3.6
aF3.6
aF3.8
aF3.0
aF3.7
aF3.4
aF3.5
aF3.5
aF3.3
aF2.4
aF3.2
aF3.5
aF3.9
aF3.5
aF3.7
aF3.0
aF3.4
aF2.8
aF3.6
aF4.0
aF3.6
aF4.0
aF3.5
aF4.2
aF3.2
aF4.5
aF3.8
aF3.7
aF3.9
aF3.3
aF3.6
aF3.8
aF4.4
aF3.8
aF3.6
aF2.9
aF3.7
aF3.7
aF3.8
aF3.2
aF3.5
aF3.6
aF3.4
aF3.4
aF3.2
aF3.2
aF3.5
aF4.7
aF2.8
aF3.0
aF3.1
aF3.4
aF4.0
aF3.3
aF3.8
aF3.4
aF3.3
aF3.0
aF3.1
aF3.8
aF3.9
aF3.8
aF4.1
aF4.5
aF3.6
aF3.4
as.